ccopy_reg
_reconstructor
p0
(cgensim.interfaces
TransformedCorpus
p1
c__builtin__
object
p2
Ntp3
Rp4
(dp5
S'corpus'
p6
(lp7
(lp8
(I0
I1
tp9
a(I1
I1
tp10
a(I2
I1
tp11
a(I3
I1
tp12
aa(lp13
(I0
I1
tp14
a(I3
I1
tp15
a(I4
I1
tp16
a(I5
I1
tp17
aa(lp18
(I2
I1
tp19
a(I6
I1
tp20
a(I7
I1
tp21
a(I8
I1
tp22
a(I9
I1
tp23
a(I10
I1
tp24
a(I11
I1
tp25
aa(lp26
(I2
I1
tp27
a(I12
I1
tp28
aa(lp29
(I2
I1
tp30
a(I13
I1
tp31
a(I14
I1
tp32
a(I15
I1
tp33
a(I16
I1
tp34
a(I17
I1
tp35
a(I18
I1
tp36
aa(lp37
(I0
I1
tp38
a(I2
I1
tp39
a(I3
I1
tp40
a(I19
I1
tp41
a(I20
I1
tp42
aa(lp43
(I0
I1
tp44
a(I2
I1
tp45
a(I3
I1
tp46
a(I19
I1
tp47
a(I21
I1
tp48
aa(lp49
(I2
I1
tp50
a(I3
I1
tp51
a(I22
I1
tp52
aa(lp53
(I0
I1
tp54
a(I2
I1
tp55
a(I3
I1
tp56
a(I19
I1
tp57
a(I23
I1
tp58
aa(lp59
(I4
I1
tp60
a(I13
I1
tp61
a(I24
I1
tp62
a(I25
I1
tp63
aa(lp64
(I3
I1
tp65
a(I4
I1
tp66
a(I26
I1
tp67
a(I27
I1
tp68
a(I28
I1
tp69
aa(lp70
(I3
I1
tp71
a(I4
I1
tp72
a(I28
I1
tp73
a(I29
I1
tp74
aa(lp75
(I4
I1
tp76
a(I29
I1
tp77
a(I30
I1
tp78
aa(lp79
(I29
I1
tp80
a(I31
I1
tp81
a(I32
I1
tp82
aa(lp83
(I26
I1
tp84
a(I32
I1
tp85
a(I33
I1
tp86
a(I34
I1
tp87
a(I35
I1
tp88
a(I36
I1
tp89
aa(lp90
(I32
I1
tp91
a(I37
I1
tp92
a(I38
I1
tp93
aa(lp94
(I4
I1
tp95
a(I23
I1
tp96
a(I29
I1
tp97
a(I39
I1
tp98
aa(lp99
(I4
I1
tp100
a(I23
I1
tp101
a(I29
I1
tp102
a(I40
I1
tp103
aa(lp104
(I4
I1
tp105
a(I29
I1
tp106
a(I41
I1
tp107
a(I42
I1
tp108
a(I43
I1
tp109
aa(lp110
(I29
I1
tp111
a(I43
I1
tp112
a(I44
I1
tp113
a(I45
I1
tp114
aa(lp115
(I2
I1
tp116
a(I46
I1
tp117
a(I47
I1
tp118
a(I48
I1
tp119
a(I49
I1
tp120
aa(lp121
(I2
I1
tp122
a(I49
I1
tp123
a(I50
I1
tp124
a(I51
I1
tp125
aa(lp126
(I23
I1
tp127
a(I41
I1
tp128
a(I52
I1
tp129
a(I53
I1
tp130
aa(lp131
(I23
I1
tp132
a(I40
I1
tp133
aa(lp134
(I13
I1
tp135
a(I19
I1
tp136
a(I23
I1
tp137
a(I54
I1
tp138
a(I55
I1
tp139
aa(lp140
(I54
I1
tp141
a(I56
I1
tp142
a(I57
I1
tp143
a(I58
I1
tp144
aa(lp145
(I54
I1
tp146
a(I59
I1
tp147
a(I60
I1
tp148
a(I61
I1
tp149
a(I62
I1
tp150
a(I63
I1
tp151
aa(lp152
(I49
I1
tp153
a(I54
I1
tp154
a(I56
I1
tp155
a(I59
I1
tp156
a(I62
I1
tp157
a(I64
I1
tp158
aa(lp159
(I54
I1
tp160
a(I56
I1
tp161
a(I61
I1
tp162
a(I64
I1
tp163
a(I65
I1
tp164
a(I66
I1
tp165
a(I67
I1
tp166
aa(lp167
(I68
I1
tp168
aa(lp169
(I67
I1
tp170
a(I69
I1
tp171
a(I70
I1
tp172
a(I71
I1
tp173
a(I72
I1
tp174
aa(lp175
(I13
I1
tp176
a(I61
I1
tp177
a(I67
I1
tp178
a(I73
I1
tp179
a(I74
I1
tp180
aa(lp181
(I67
I1
tp182
a(I73
I1
tp183
aa(lp184
(I67
I1
tp185
a(I71
I1
tp186
a(I75
I1
tp187
a(I76
I1
tp188
a(I77
I1
tp189
a(I78
I1
tp190
a(I79
I1
tp191
a(I80
I1
tp192
a(I81
I1
tp193
a(I82
I1
tp194
aa(lp195
(I67
I1
tp196
a(I71
I1
tp197
a(I75
I1
tp198
a(I76
I1
tp199
a(I77
I1
tp200
a(I78
I1
tp201
a(I80
I1
tp202
a(I81
I1
tp203
a(I82
I1
tp204
a(I83
I1
tp205
aa(lp206
(I67
I1
tp207
a(I75
I1
tp208
a(I82
I1
tp209
a(I84
I1
tp210
a(I85
I1
tp211
a(I86
I1
tp212
a(I87
I1
tp213
a(I88
I1
tp214
a(I89
I1
tp215
a(I90
I1
tp216
aa(lp217
(I23
I1
tp218
a(I67
I1
tp219
a(I70
I1
tp220
a(I71
I1
tp221
aa(lp222
(I56
I1
tp223
a(I67
I1
tp224
a(I73
I1
tp225
a(I91
I1
tp226
a(I92
I1
tp227
a(I93
I1
tp228
a(I94
I1
tp229
a(I95
I1
tp230
a(I96
I1
tp231
aa(lp232
(I13
I1
tp233
a(I56
I1
tp234
a(I64
I1
tp235
a(I65
I1
tp236
a(I73
I1
tp237
a(I97
I1
tp238
a(I98
I1
tp239
aa(lp240
(I13
I1
tp241
a(I25
I1
tp242
a(I66
I1
tp243
a(I67
I1
tp244
a(I73
I1
tp245
a(I99
I1
tp246
aa(lp247
(I4
I1
tp248
a(I67
I1
tp249
aa(lp250
(I13
I1
tp251
a(I100
I1
tp252
a(I101
I1
tp253
a(I102
I1
tp254
aa(lp255
(I74
I1
tp256
a(I103
I1
tp257
aa(lp258
(I4
I1
tp259
a(I104
I1
tp260
a(I105
I1
tp261
aa(lp262
(I106
I2
tp263
a(I107
I1
tp264
a(I108
I1
tp265
a(I109
I1
tp266
aa(lp267
(I67
I1
tp268
a(I110
I1
tp269
aa(lp270
(I111
I1
tp271
a(I112
I1
tp272
a(I113
I1
tp273
aa(lp274
(I3
I1
tp275
a(I4
I1
tp276
a(I105
I1
tp277
a(I114
I1
tp278
aa(lp279
(I2
I1
tp280
a(I58
I1
tp281
a(I115
I1
tp282
a(I116
I1
tp283
aa(lp284
(I4
I1
tp285
a(I67
I1
tp286
a(I105
I1
tp287
a(I117
I1
tp288
aa(lp289
(I104
I1
tp290
a(I111
I1
tp291
a(I118
I1
tp292
aa(lp293
(I13
I1
tp294
a(I56
I1
tp295
a(I93
I1
tp296
a(I119
I1
tp297
a(I120
I1
tp298
a(I121
I1
tp299
a(I122
I1
tp300
a(I123
I1
tp301
a(I124
I1
tp302
a(I125
I1
tp303
a(I126
I1
tp304
aa(lp305
(I2
I1
tp306
a(I84
I1
tp307
a(I127
I1
tp308
a(I128
I1
tp309
a(I129
I1
tp310
aa(lp311
(I4
I1
tp312
a(I84
I1
tp313
a(I127
I1
tp314
a(I128
I1
tp315
a(I129
I1
tp316
aa(lp317
(I130
I1
tp318
aa(lp319
(I5
I1
tp320
a(I66
I1
tp321
a(I67
I1
tp322
a(I131
I1
tp323
a(I132
I1
tp324
aa(lp325
(I13
I1
tp326
a(I84
I1
tp327
a(I127
I1
tp328
a(I128
I1
tp329
a(I133
I1
tp330
a(I134
I1
tp331
aa(lp332
(I135
I1
tp333
a(I136
I1
tp334
aa(lp335
(I137
I1
tp336
a(I138
I1
tp337
aa(lp338
(I13
I1
tp339
a(I36
I1
tp340
a(I139
I1
tp341
aa(lp342
(I13
I1
tp343
a(I140
I1
tp344
a(I141
I1
tp345
aa(lp346
(I13
I1
tp347
a(I26
I1
tp348
a(I140
I1
tp349
a(I142
I1
tp350
a(I143
I1
tp351
a(I144
I1
tp352
aa(lp353
(I140
I1
tp354
a(I145
I1
tp355
aa(lp356
(I67
I1
tp357
a(I145
I1
tp358
a(I146
I1
tp359
a(I147
I1
tp360
a(I148
I1
tp361
aa(lp362
(I67
I1
tp363
a(I146
I1
tp364
a(I147
I1
tp365
a(I148
I1
tp366
a(I149
I1
tp367
aa(lp368
(I147
I1
tp369
a(I149
I1
tp370
a(I150
I1
tp371
aa(lp372
(I128
I1
tp373
a(I147
I1
tp374
a(I151
I1
tp375
a(I152
I1
tp376
a(I153
I1
tp377
aa(lp378
(I154
I1
tp379
a(I155
I1
tp380
aa(lp381
(I147
I1
tp382
a(I156
I1
tp383
aa(lp384
(I13
I1
tp385
a(I141
I1
tp386
a(I147
I1
tp387
aa(lp388
(I67
I1
tp389
a(I139
I1
tp390
a(I157
I1
tp391
a(I158
I1
tp392
aa(lp393
(I67
I2
tp394
a(I139
I1
tp395
a(I158
I1
tp396
a(I159
I1
tp397
a(I160
I1
tp398
aa(lp399
(I67
I1
tp400
a(I139
I1
tp401
a(I145
I1
tp402
a(I159
I1
tp403
a(I161
I1
tp404
a(I162
I1
tp405
aa(lp406
(I159
I1
tp407
a(I161
I1
tp408
a(I162
I1
tp409
aa(lp410
(I13
I1
tp411
a(I141
I1
tp412
a(I157
I1
tp413
a(I158
I1
tp414
a(I161
I1
tp415
aa(lp416
(I13
I1
tp417
a(I141
I1
tp418
a(I158
I1
tp419
a(I159
I1
tp420
a(I161
I1
tp421
a(I162
I1
tp422
a(I163
I1
tp423
aa(lp424
(I3
I1
tp425
a(I13
I1
tp426
a(I67
I1
tp427
a(I157
I1
tp428
a(I158
I1
tp429
a(I161
I1
tp430
aa(lp431
(I34
I1
tp432
a(I35
I1
tp433
a(I85
I1
tp434
a(I159
I1
tp435
a(I162
I1
tp436
a(I164
I1
tp437
a(I165
I1
tp438
a(I166
I1
tp439
a(I167
I1
tp440
aa(lp441
(I13
I1
tp442
a(I141
I1
tp443
a(I158
I1
tp444
a(I159
I1
tp445
a(I161
I1
tp446
a(I162
I1
tp447
aa(lp448
(I13
I1
tp449
a(I67
I1
tp450
a(I128
I1
tp451
a(I139
I1
tp452
a(I168
I1
tp453
a(I169
I1
tp454
aa(lp455
(I161
I1
tp456
a(I170
I1
tp457
a(I171
I1
tp458
a(I172
I1
tp459
aa(lp460
(I161
I1
tp461
a(I172
I1
tp462
a(I173
I1
tp463
a(I174
I1
tp464
aa(lp465
(I157
I1
tp466
a(I161
I1
tp467
a(I170
I1
tp468
a(I172
I1
tp469
aa(lp470
(I45
I1
tp471
a(I172
I1
tp472
a(I175
I1
tp473
aa(lp474
(I136
I1
tp475
a(I176
I1
tp476
aa(lp477
(I13
I1
tp478
a(I136
I1
tp479
a(I176
I1
tp480
a(I177
I1
tp481
a(I178
I1
tp482
a(I179
I1
tp483
a(I180
I1
tp484
a(I181
I1
tp485
aa(lp486
(I176
I1
tp487
a(I182
I1
tp488
aa(lp489
(I3
I1
tp490
a(I19
I1
tp491
a(I148
I1
tp492
a(I182
I1
tp493
a(I183
I1
tp494
aa(lp495
(I3
I1
tp496
a(I19
I1
tp497
a(I23
I1
tp498
a(I182
I1
tp499
a(I183
I1
tp500
aa(lp501
(I4
I1
tp502
a(I57
I1
tp503
a(I184
I1
tp504
a(I185
I1
tp505
aa(lp506
(I4
I1
tp507
a(I13
I1
tp508
a(I184
I1
tp509
a(I186
I1
tp510
a(I187
I1
tp511
aa(lp512
(I9
I1
tp513
a(I188
I1
tp514
a(I189
I1
tp515
aa(lp516
(I4
I1
tp517
a(I41
I1
tp518
a(I190
I1
tp519
aa(lp520
(I4
I1
tp521
a(I187
I1
tp522
a(I191
I1
tp523
aa(lp524
(I187
I1
tp525
a(I192
I1
tp526
aa(lp527
(I4
I1
tp528
a(I13
I1
tp529
a(I187
I1
tp530
a(I193
I1
tp531
aa(lp532
(I4
I1
tp533
a(I194
I1
tp534
aa(lp535
(I4
I1
tp536
a(I195
I1
tp537
a(I196
I1
tp538
aa(lp539
(I4
I1
tp540
a(I57
I1
tp541
a(I184
I1
tp542
a(I197
I1
tp543
aa(lp544
(I198
I1
tp545
a(I199
I1
tp546
aa(lp547
(I13
I1
tp548
a(I198
I1
tp549
a(I200
I1
tp550
aa(lp551
(I4
I1
tp552
a(I26
I1
tp553
a(I36
I1
tp554
a(I201
I1
tp555
a(I202
I1
tp556
aa(lp557
(I3
I1
tp558
a(I4
I1
tp559
a(I203
I1
tp560
a(I204
I1
tp561
aa(lp562
(I4
I1
tp563
a(I201
I1
tp564
a(I205
I1
tp565
aa(lp566
(I4
I1
tp567
a(I206
I1
tp568
aa(lp569
(I4
I1
tp570
a(I24
I1
tp571
a(I207
I1
tp572
a(I208
I1
tp573
aa(lp574
(I4
I1
tp575
a(I25
I1
tp576
a(I29
I1
tp577
a(I42
I1
tp578
aa(lp579
(I4
I1
tp580
a(I209
I1
tp581
a(I210
I1
tp582
aa(lp583
(I4
I1
tp584
a(I29
I1
tp585
a(I178
I1
tp586
a(I211
I1
tp587
aa(lp588
(I4
I1
tp589
a(I29
I1
tp590
a(I212
I1
tp591
a(I213
I1
tp592
aa(lp593
(I4
I1
tp594
a(I29
I1
tp595
a(I214
I1
tp596
a(I215
I1
tp597
aa(lp598
(I2
I1
tp599
a(I129
I1
tp600
a(I193
I1
tp601
a(I207
I1
tp602
a(I216
I1
tp603
a(I217
I1
tp604
aa(lp605
(I5
I1
tp606
a(I89
I1
tp607
a(I129
I1
tp608
a(I191
I1
tp609
a(I207
I1
tp610
a(I217
I1
tp611
a(I218
I1
tp612
a(I219
I1
tp613
aa(lp614
(I4
I1
tp615
a(I220
I1
tp616
aa(lp617
(I89
I1
tp618
a(I221
I1
tp619
a(I222
I1
tp620
a(I223
I1
tp621
aa(lp622
(I4
I1
tp623
a(I219
I1
tp624
a(I224
I1
tp625
aa(lp626
(I4
I1
tp627
a(I225
I1
tp628
a(I226
I1
tp629
a(I227
I1
tp630
aa(lp631
(I2
I1
tp632
a(I228
I1
tp633
a(I229
I1
tp634
aa(lp635
(I5
I1
tp636
a(I89
I1
tp637
a(I129
I1
tp638
a(I217
I1
tp639
a(I219
I1
tp640
aa(lp641
(I5
I1
tp642
a(I58
I1
tp643
a(I89
I1
tp644
a(I129
I1
tp645
a(I217
I1
tp646
a(I230
I1
tp647
aa(lp648
(I3
I1
tp649
a(I4
I1
tp650
a(I22
I1
tp651
aa(lp652
(I4
I1
tp653
a(I31
I1
tp654
a(I231
I1
tp655
a(I232
I1
tp656
aa(lp657
(I4
I1
tp658
a(I184
I1
tp659
a(I233
I1
tp660
aa(lp661
(I4
I1
tp662
a(I214
I1
tp663
a(I233
I1
tp664
aa(lp665
(I3
I1
tp666
a(I225
I1
tp667
a(I234
I1
tp668
a(I235
I1
tp669
a(I236
I1
tp670
aa(lp671
(I3
I1
tp672
a(I61
I1
tp673
a(I194
I1
tp674
aa(lp675
(I105
I1
tp676
a(I237
I1
tp677
a(I238
I1
tp678
aa(lp679
(I13
I1
tp680
a(I185
I1
tp681
a(I239
I1
tp682
a(I240
I1
tp683
aa(lp684
(I145
I1
tp685
a(I239
I1
tp686
aa(lp687
(I13
I1
tp688
a(I141
I1
tp689
a(I239
I1
tp690
aa(lp691
(I2
I1
tp692
a(I24
I1
tp693
a(I209
I1
tp694
a(I241
I1
tp695
a(I242
I1
tp696
a(I243
I1
tp697
aa(lp698
(I2
I1
tp699
a(I157
I1
tp700
a(I170
I1
tp701
a(I244
I1
tp702
aa(lp703
(I0
I1
tp704
a(I2
I1
tp705
a(I244
I1
tp706
a(I245
I1
tp707
aa(lp708
(I2
I1
tp709
a(I3
I1
tp710
a(I244
I1
tp711
aa(lp712
(I36
I1
tp713
a(I244
I1
tp714
aa(lp715
(I2
I1
tp716
a(I105
I1
tp717
a(I148
I1
tp718
a(I244
I1
tp719
aa(lp720
(I83
I1
tp721
a(I105
I1
tp722
a(I244
I1
tp723
aa(lp724
(I2
I1
tp725
a(I61
I1
tp726
a(I244
I1
tp727
a(I246
I1
tp728
aa(lp729
(I2
I1
tp730
a(I13
I1
tp731
a(I207
I1
tp732
a(I244
I1
tp733
a(I247
I1
tp734
aa(lp735
(I107
I1
tp736
a(I248
I1
tp737
a(I249
I1
tp738
aa(lp739
(I2
I1
tp740
a(I170
I1
tp741
a(I207
I1
tp742
a(I244
I1
tp743
aa(lp744
(I0
I1
tp745
a(I13
I1
tp746
a(I34
I1
tp747
a(I35
I1
tp748
a(I44
I1
tp749
a(I105
I1
tp750
a(I244
I1
tp751
aa(lp752
(I0
I1
tp753
a(I2
I1
tp754
a(I244
I1
tp755
a(I250
I1
tp756
aa(lp757
(I2
I1
tp758
a(I3
I1
tp759
a(I13
I1
tp760
a(I61
I1
tp761
a(I74
I1
tp762
a(I153
I1
tp763
a(I244
I1
tp764
a(I251
I1
tp765
a(I252
I1
tp766
aa(lp767
(I2
I1
tp768
a(I3
I1
tp769
a(I60
I1
tp770
a(I244
I1
tp771
a(I253
I1
tp772
aa(lp773
(I3
I1
tp774
a(I4
I1
tp775
a(I24
I1
tp776
a(I45
I1
tp777
aa(lp778
(I3
I1
tp779
a(I4
I1
tp780
a(I28
I1
tp781
a(I204
I1
tp782
aa(lp783
(I13
I1
tp784
a(I26
I1
tp785
a(I136
I1
tp786
a(I142
I1
tp787
a(I143
I1
tp788
a(I144
I1
tp789
a(I254
I1
tp790
aa(lp791
(I11
I1
tp792
a(I136
I1
tp793
a(I145
I1
tp794
a(I254
I1
tp795
aa(lp796
(I136
I1
tp797
a(I173
I1
tp798
a(I174
I1
tp799
a(I254
I1
tp800
aa(lp801
(I36
I1
tp802
a(I161
I1
tp803
a(I172
I1
tp804
aa(lp805
(I13
I1
tp806
a(I23
I1
tp807
a(I67
I1
tp808
a(I158
I1
tp809
a(I161
I1
tp810
a(I255
I1
tp811
aa(lp812
(I23
I1
tp813
a(I67
I1
tp814
a(I145
I1
tp815
a(I161
I1
tp816
aa(lp817
(I1
I1
tp818
a(I4
I1
tp819
a(I36
I1
tp820
a(I143
I1
tp821
aa(lp822
(I13
I1
tp823
a(I141
I1
tp824
a(I256
I1
tp825
aa(lp826
(I2
I1
tp827
a(I13
I1
tp828
a(I14
I1
tp829
a(I16
I1
tp830
a(I17
I1
tp831
a(I18
I1
tp832
aa(lp833
(I36
I1
tp834
a(I257
I1
tp835
a(I258
I1
tp836
aa(lp837
(I174
I1
tp838
a(I257
I1
tp839
a(I259
I1
tp840
a(I260
I1
tp841
aa(lp842
(I36
I1
tp843
a(I41
I1
tp844
a(I257
I1
tp845
a(I258
I1
tp846
aa(lp847
(I4
I1
tp848
a(I225
I1
tp849
a(I227
I1
tp850
a(I228
I1
tp851
aa(lp852
(I3
I1
tp853
a(I4
I1
tp854
a(I192
I1
tp855
a(I223
I1
tp856
a(I261
I1
tp857
aa(lp858
(I2
I1
tp859
a(I3
I1
tp860
a(I11
I1
tp861
a(I223
I1
tp862
a(I262
I1
tp863
a(I263
I1
tp864
aa(lp865
(I3
I1
tp866
a(I4
I1
tp867
a(I263
I1
tp868
a(I264
I1
tp869
aa(lp870
(I3
I1
tp871
a(I18
I1
tp872
a(I265
I1
tp873
aa(lp874
(I9
I1
tp875
a(I129
I1
tp876
a(I188
I1
tp877
a(I266
I1
tp878
aa(lp879
(I4
I1
tp880
a(I13
I1
tp881
a(I207
I1
tp882
a(I267
I1
tp883
aa(lp884
(I4
I1
tp885
a(I13
I1
tp886
a(I209
I1
tp887
a(I268
I1
tp888
a(I269
I1
tp889
aa(lp890
(I4
I1
tp891
a(I13
I1
tp892
a(I45
I1
tp893
a(I207
I1
tp894
a(I269
I1
tp895
aa(lp896
(I4
I1
tp897
a(I45
I1
tp898
a(I110
I1
tp899
a(I207
I1
tp900
a(I266
I1
tp901
aa(lp902
(I19
I1
tp903
a(I20
I1
tp904
a(I266
I1
tp905
a(I270
I1
tp906
a(I271
I1
tp907
a(I272
I1
tp908
a(I273
I1
tp909
a(I274
I1
tp910
aa(lp911
(I19
I1
tp912
a(I20
I1
tp913
a(I266
I1
tp914
a(I270
I1
tp915
a(I272
I1
tp916
a(I273
I1
tp917
a(I274
I1
tp918
a(I275
I1
tp919
aa(lp920
(I2
I1
tp921
a(I19
I1
tp922
a(I67
I1
tp923
a(I129
I1
tp924
a(I266
I1
tp925
a(I276
I1
tp926
aa(lp927
(I167
I1
tp928
a(I266
I2
tp929
a(I276
I1
tp930
a(I277
I1
tp931
a(I278
I1
tp932
aa(lp933
(I129
I1
tp934
a(I266
I1
tp935
a(I268
I1
tp936
a(I279
I1
tp937
aa(lp938
(I9
I1
tp939
a(I188
I1
tp940
a(I280
I1
tp941
aa(lp942
(I11
I1
tp943
a(I13
I1
tp944
a(I121
I2
tp945
a(I138
I1
tp946
a(I252
I1
tp947
a(I280
I2
tp948
aa(lp949
(I13
I1
tp950
a(I61
I1
tp951
a(I67
I1
tp952
a(I121
I1
tp953
a(I280
I1
tp954
aa(lp955
(I11
I1
tp956
a(I47
I1
tp957
a(I67
I1
tp958
a(I107
I1
tp959
a(I281
I1
tp960
a(I282
I1
tp961
a(I283
I1
tp962
a(I284
I1
tp963
a(I285
I1
tp964
aa(lp965
(I56
I1
tp966
a(I64
I1
tp967
a(I121
I1
tp968
a(I188
I1
tp969
a(I284
I1
tp970
a(I286
I1
tp971
a(I287
I1
tp972
a(I288
I1
tp973
a(I289
I1
tp974
aa(lp975
(I153
I1
tp976
a(I266
I1
tp977
a(I272
I1
tp978
a(I290
I1
tp979
a(I291
I1
tp980
a(I292
I1
tp981
aa(lp982
(I13
I1
tp983
a(I20
I1
tp984
a(I129
I1
tp985
a(I266
I2
tp986
a(I269
I1
tp987
a(I272
I1
tp988
a(I293
I1
tp989
a(I294
I1
tp990
aa(lp991
(I15
I1
tp992
a(I34
I1
tp993
a(I35
I1
tp994
a(I45
I1
tp995
a(I153
I1
tp996
a(I164
I1
tp997
a(I225
I1
tp998
a(I266
I1
tp999
a(I274
I1
tp1000
a(I282
I1
tp1001
a(I295
I1
tp1002
a(I296
I1
tp1003
a(I297
I1
tp1004
a(I298
I1
tp1005
aa(lp1006
(I153
I1
tp1007
a(I164
I1
tp1008
a(I167
I1
tp1009
a(I266
I1
tp1010
a(I273
I1
tp1011
a(I275
I1
tp1012
a(I295
I1
tp1013
a(I296
I1
tp1014
a(I298
I1
tp1015
a(I299
I1
tp1016
aa(lp1017
(I20
I1
tp1018
a(I164
I1
tp1019
a(I266
I1
tp1020
a(I297
I1
tp1021
a(I299
I1
tp1022
a(I300
I1
tp1023
a(I301
I1
tp1024
a(I302
I1
tp1025
a(I303
I1
tp1026
a(I304
I1
tp1027
aa(lp1028
(I9
I1
tp1029
a(I13
I1
tp1030
a(I20
I1
tp1031
a(I273
I1
tp1032
a(I305
I1
tp1033
a(I306
I1
tp1034
a(I307
I1
tp1035
aa(lp1036
(I20
I1
tp1037
a(I266
I1
tp1038
a(I298
I1
tp1039
a(I302
I1
tp1040
a(I308
I1
tp1041
a(I309
I1
tp1042
a(I310
I1
tp1043
a(I311
I1
tp1044
aa(lp1045
(I272
I1
tp1046
a(I301
I1
tp1047
a(I312
I1
tp1048
aa(lp1049
(I313
I1
tp1050
a(I314
I1
tp1051
a(I315
I1
tp1052
a(I316
I1
tp1053
aa(lp1054
(I20
I1
tp1055
a(I153
I1
tp1056
a(I298
I1
tp1057
a(I307
I1
tp1058
a(I317
I1
tp1059
a(I318
I1
tp1060
a(I319
I1
tp1061
aa(lp1062
(I20
I1
tp1063
a(I320
I1
tp1064
a(I321
I1
tp1065
a(I322
I1
tp1066
a(I323
I1
tp1067
aa(lp1068
(I20
I1
tp1069
a(I55
I1
tp1070
a(I58
I1
tp1071
a(I59
I1
tp1072
a(I62
I1
tp1073
a(I225
I1
tp1074
a(I272
I1
tp1075
a(I295
I1
tp1076
a(I299
I1
tp1077
a(I301
I1
tp1078
a(I307
I1
tp1079
a(I312
I1
tp1080
a(I324
I1
tp1081
a(I325
I1
tp1082
a(I326
I1
tp1083
aa(lp1084
(I20
I1
tp1085
a(I34
I1
tp1086
a(I35
I1
tp1087
a(I125
I1
tp1088
a(I298
I1
tp1089
a(I307
I1
tp1090
a(I316
I1
tp1091
a(I322
I1
tp1092
a(I323
I1
tp1093
a(I327
I1
tp1094
a(I328
I1
tp1095
a(I329
I1
tp1096
aa(lp1097
(I13
I2
tp1098
a(I20
I1
tp1099
a(I164
I1
tp1100
a(I167
I1
tp1101
a(I266
I1
tp1102
a(I272
I1
tp1103
a(I277
I1
tp1104
a(I298
I2
tp1105
a(I299
I1
tp1106
a(I302
I1
tp1107
a(I307
I1
tp1108
a(I330
I1
tp1109
a(I331
I1
tp1110
a(I332
I2
tp1111
a(I333
I2
tp1112
aa(lp1113
(I20
I1
tp1114
a(I93
I1
tp1115
a(I146
I1
tp1116
a(I153
I1
tp1117
a(I164
I1
tp1118
a(I299
I1
tp1119
a(I307
I1
tp1120
a(I318
I1
tp1121
a(I334
I1
tp1122
a(I335
I1
tp1123
a(I336
I1
tp1124
a(I337
I1
tp1125
a(I338
I1
tp1126
a(I339
I1
tp1127
a(I340
I1
tp1128
a(I341
I1
tp1129
a(I342
I1
tp1130
aa(lp1131
(I2
I1
tp1132
a(I269
I1
tp1133
a(I343
I1
tp1134
aa(lp1135
(I2
I1
tp1136
a(I20
I1
tp1137
a(I207
I1
tp1138
a(I269
I1
tp1139
aa(lp1140
(I2
I1
tp1141
a(I13
I1
tp1142
a(I207
I1
tp1143
a(I218
I1
tp1144
a(I269
I1
tp1145
aa(lp1146
(I26
I1
tp1147
a(I58
I1
tp1148
a(I60
I1
tp1149
a(I61
I1
tp1150
a(I62
I1
tp1151
a(I63
I1
tp1152
a(I86
I1
tp1153
a(I87
I1
tp1154
a(I124
I1
tp1155
a(I344
I1
tp1156
aa(lp1157
(I15
I1
tp1158
a(I26
I1
tp1159
a(I58
I1
tp1160
a(I59
I1
tp1161
a(I60
I1
tp1162
a(I61
I1
tp1163
a(I63
I1
tp1164
a(I345
I1
tp1165
a(I346
I1
tp1166
aa(lp1167
(I13
I1
tp1168
a(I59
I1
tp1169
a(I60
I1
tp1170
a(I61
I1
tp1171
a(I63
I1
tp1172
a(I217
I1
tp1173
aa(lp1174
(I2
I1
tp1175
a(I7
I1
tp1176
a(I10
I1
tp1177
a(I23
I1
tp1178
a(I37
I1
tp1179
a(I59
I1
tp1180
a(I274
I1
tp1181
aa(lp1182
(I2
I1
tp1183
a(I26
I1
tp1184
a(I58
I1
tp1185
a(I59
I1
tp1186
a(I60
I1
tp1187
a(I61
I1
tp1188
a(I62
I1
tp1189
a(I63
I1
tp1190
aa(lp1191
(I15
I1
tp1192
a(I26
I1
tp1193
a(I58
I1
tp1194
a(I60
I1
tp1195
a(I61
I1
tp1196
a(I62
I1
tp1197
a(I63
I1
tp1198
a(I86
I1
tp1199
a(I87
I1
tp1200
a(I124
I1
tp1201
aa(lp1202
(I4
I1
tp1203
a(I58
I1
tp1204
a(I211
I1
tp1205
aa(lp1206
(I57
I1
tp1207
a(I184
I1
tp1208
a(I197
I1
tp1209
aa(lp1210
(I57
I1
tp1211
a(I184
I1
tp1212
a(I185
I1
tp1213
aa(lp1214
(I29
I1
tp1215
a(I61
I1
tp1216
a(I347
I1
tp1217
a(I348
I1
tp1218
a(I349
I1
tp1219
aa(lp1220
(I13
I1
tp1221
a(I198
I1
tp1222
a(I350
I1
tp1223
aa(lp1224
(I195
I1
tp1225
a(I240
I1
tp1226
a(I351
I1
tp1227
aa(lp1228
(I352
I1
tp1229
a(I353
I1
tp1230
aa(lp1231
(I13
I1
tp1232
a(I57
I1
tp1233
a(I184
I1
tp1234
a(I197
I1
tp1235
aa(lp1236
(I24
I1
tp1237
a(I36
I1
tp1238
a(I208
I1
tp1239
aa(lp1240
(I13
I1
tp1241
a(I201
I1
tp1242
a(I205
I1
tp1243
a(I350
I1
tp1244
aa(lp1245
(I13
I1
tp1246
a(I24
I1
tp1247
a(I294
I1
tp1248
a(I354
I1
tp1249
a(I355
I1
tp1250
a(I356
I1
tp1251
aa(lp1252
(I36
I1
tp1253
a(I354
I1
tp1254
a(I357
I1
tp1255
a(I358
I1
tp1256
aa(lp1257
(I206
I1
tp1258
aa(lp1259
(I3
I1
tp1260
a(I28
I1
tp1261
a(I356
I1
tp1262
aa(lp1263
(I13
I1
tp1264
a(I200
I1
tp1265
a(I359
I1
tp1266
aa(lp1267
(I13
I1
tp1268
a(I118
I1
tp1269
a(I157
I1
tp1270
a(I359
I1
tp1271
aa(lp1272
(I13
I1
tp1273
a(I359
I1
tp1274
a(I360
I1
tp1275
a(I361
I1
tp1276
aa(lp1277
(I13
I1
tp1278
a(I238
I1
tp1279
a(I306
I1
tp1280
aa(lp1281
(I13
I1
tp1282
a(I238
I1
tp1283
a(I362
I1
tp1284
aa(lp1285
(I13
I1
tp1286
a(I105
I1
tp1287
a(I191
I1
tp1288
a(I225
I1
tp1289
a(I227
I1
tp1290
aa(lp1291
(I237
I1
tp1292
a(I363
I1
tp1293
a(I364
I1
tp1294
a(I365
I1
tp1295
a(I366
I1
tp1296
aa(lp1297
(I13
I1
tp1298
a(I287
I1
tp1299
a(I364
I1
tp1300
a(I365
I1
tp1301
a(I367
I1
tp1302
aa(lp1303
(I9
I1
tp1304
a(I188
I1
tp1305
a(I364
I1
tp1306
a(I368
I1
tp1307
aa(lp1308
(I2
I1
tp1309
a(I7
I1
tp1310
a(I10
I1
tp1311
a(I37
I1
tp1312
a(I59
I1
tp1313
a(I79
I1
tp1314
aa(lp1315
(I59
I1
tp1316
a(I63
I1
tp1317
a(I344
I1
tp1318
a(I369
I1
tp1319
a(I370
I1
tp1320
a(I371
I1
tp1321
aa(lp1322
(I59
I1
tp1323
a(I62
I1
tp1324
a(I225
I1
tp1325
aa(lp1326
(I41
I1
tp1327
a(I59
I1
tp1328
a(I105
I1
tp1329
a(I217
I1
tp1330
a(I354
I1
tp1331
a(I372
I1
tp1332
aa(lp1333
(I13
I1
tp1334
a(I59
I1
tp1335
a(I174
I1
tp1336
a(I217
I1
tp1337
a(I344
I1
tp1338
aa(lp1339
(I13
I1
tp1340
a(I59
I1
tp1341
a(I62
I1
tp1342
a(I293
I1
tp1343
a(I294
I1
tp1344
aa(lp1345
(I13
I1
tp1346
a(I59
I2
tp1347
a(I62
I1
tp1348
a(I170
I1
tp1349
a(I293
I1
tp1350
a(I294
I1
tp1351
aa(lp1352
(I59
I1
tp1353
a(I62
I1
tp1354
a(I64
I1
tp1355
a(I188
I1
tp1356
a(I228
I1
tp1357
a(I354
I1
tp1358
a(I373
I1
tp1359
aa(lp1360
(I13
I1
tp1361
a(I20
I1
tp1362
a(I58
I1
tp1363
a(I374
I1
tp1364
aa(lp1365
(I20
I1
tp1366
a(I374
I1
tp1367
a(I375
I1
tp1368
aa(lp1369
(I20
I1
tp1370
a(I41
I1
tp1371
a(I105
I1
tp1372
a(I374
I1
tp1373
aa(lp1374
(I4
I1
tp1375
a(I187
I1
tp1376
a(I217
I1
tp1377
a(I376
I1
tp1378
aa(lp1379
(I4
I1
tp1380
a(I187
I1
tp1381
a(I192
I1
tp1382
aa(lp1383
(I4
I1
tp1384
a(I9
I1
tp1385
a(I187
I1
tp1386
a(I188
I1
tp1387
aa(lp1388
(I5
I1
tp1389
a(I58
I1
tp1390
a(I89
I1
tp1391
a(I129
I1
tp1392
a(I217
I1
tp1393
a(I219
I1
tp1394
aa(lp1395
(I5
I1
tp1396
a(I58
I1
tp1397
a(I89
I1
tp1398
a(I219
I1
tp1399
a(I226
I1
tp1400
a(I377
I1
tp1401
a(I378
I1
tp1402
aa(lp1403
(I5
I1
tp1404
a(I58
I1
tp1405
a(I89
I1
tp1406
a(I226
I1
tp1407
a(I230
I1
tp1408
a(I377
I1
tp1409
a(I378
I1
tp1410
aa(lp1411
(I2
I1
tp1412
a(I15
I1
tp1413
a(I129
I1
tp1414
a(I184
I1
tp1415
a(I186
I1
tp1416
a(I217
I1
tp1417
aa(lp1418
(I58
I1
tp1419
a(I293
I1
tp1420
a(I379
I1
tp1421
a(I380
I1
tp1422
a(I381
I1
tp1423
aa(lp1424
(I4
I1
tp1425
a(I13
I1
tp1426
a(I191
I1
tp1427
a(I382
I1
tp1428
aa(lp1429
(I3
I1
tp1430
a(I4
I1
tp1431
a(I46
I1
tp1432
a(I191
I1
tp1433
a(I318
I1
tp1434
aa(lp1435
(I4
I1
tp1436
a(I26
I1
tp1437
a(I45
I1
tp1438
a(I214
I1
tp1439
a(I246
I1
tp1440
aa(lp1441
(I4
I1
tp1442
a(I15
I1
tp1443
a(I29
I1
tp1444
a(I60
I1
tp1445
a(I63
I1
tp1446
a(I214
I1
tp1447
a(I274
I1
tp1448
aa(lp1449
(I4
I1
tp1450
a(I24
I1
tp1451
a(I36
I1
tp1452
a(I208
I1
tp1453
aa(lp1454
(I4
I1
tp1455
a(I190
I1
tp1456
a(I193
I1
tp1457
aa(lp1458
(I4
I1
tp1459
a(I186
I1
tp1460
a(I190
I1
tp1461
a(I383
I1
tp1462
aa(lp1463
(I4
I1
tp1464
a(I190
I1
tp1465
a(I225
I1
tp1466
a(I384
I1
tp1467
aa(lp1468
(I4
I1
tp1469
a(I187
I1
tp1470
a(I193
I1
tp1471
aa(lp1472
(I190
I1
tp1473
a(I385
I1
tp1474
aa(lp1475
(I386
I1
tp1476
aa(lp1477
(I2
I1
tp1478
a(I58
I1
tp1479
a(I387
I1
tp1480
aa(lp1481
(I2
I1
tp1482
a(I19
I1
tp1483
a(I67
I1
tp1484
a(I387
I1
tp1485
aa(lp1486
(I2
I1
tp1487
a(I387
I1
tp1488
a(I388
I1
tp1489
aa(lp1490
(I2
I1
tp1491
a(I13
I1
tp1492
a(I41
I1
tp1493
a(I50
I1
tp1494
a(I354
I1
tp1495
a(I372
I1
tp1496
a(I387
I1
tp1497
aa(lp1498
(I4
I1
tp1499
a(I13
I1
tp1500
a(I389
I1
tp1501
aa(lp1502
(I4
I1
tp1503
a(I9
I1
tp1504
a(I188
I1
tp1505
aa(lp1506
(I4
I1
tp1507
a(I13
I1
tp1508
a(I267
I1
tp1509
a(I390
I1
tp1510
aa(lp1511
(I4
I1
tp1512
a(I13
I1
tp1513
a(I269
I1
tp1514
a(I390
I1
tp1515
aa(lp1516
(I43
I1
tp1517
a(I110
I1
tp1518
a(I267
I1
tp1519
a(I391
I1
tp1520
aa(lp1521
(I4
I1
tp1522
a(I184
I1
tp1523
a(I186
I1
tp1524
a(I276
I1
tp1525
aa(lp1526
(I4
I1
tp1527
a(I13
I1
tp1528
a(I25
I1
tp1529
a(I276
I1
tp1530
aa(lp1531
(I4
I1
tp1532
a(I36
I1
tp1533
a(I392
I1
tp1534
a(I393
I1
tp1535
aa(lp1536
(I13
I1
tp1537
a(I279
I1
tp1538
a(I394
I1
tp1539
a(I395
I1
tp1540
aa(lp1541
(I276
I1
tp1542
a(I396
I1
tp1543
aa(lp1544
(I260
I1
tp1545
a(I397
I1
tp1546
aa(lp1547
(I4
I1
tp1548
a(I36
I1
tp1549
a(I279
I1
tp1550
a(I394
I1
tp1551
aa(lp1552
(I4
I1
tp1553
a(I282
I1
tp1554
a(I398
I1
tp1555
aa(lp1556
(I58
I1
tp1557
a(I399
I1
tp1558
aa(lp1559
(I4
I1
tp1560
a(I9
I1
tp1561
a(I188
I1
tp1562
a(I257
I1
tp1563
aa(lp1564
(I4
I1
tp1565
a(I238
I1
tp1566
aa(lp1567
(I105
I1
tp1568
a(I237
I1
tp1569
a(I400
I1
tp1570
aa(lp1571
(I13
I1
tp1572
a(I61
I1
tp1573
a(I105
I1
tp1574
a(I401
I1
tp1575
a(I402
I1
tp1576
aa(lp1577
(I13
I1
tp1578
a(I238
I1
tp1579
a(I293
I1
tp1580
a(I294
I1
tp1581
a(I400
I1
tp1582
aa(lp1583
(I24
I1
tp1584
a(I64
I1
tp1585
a(I97
I1
tp1586
a(I261
I1
tp1587
a(I403
I1
tp1588
aa(lp1589
(I4
I1
tp1590
a(I184
I1
tp1591
a(I186
I1
tp1592
a(I404
I1
tp1593
aa(lp1594
(I404
I1
tp1595
a(I405
I1
tp1596
a(I406
I1
tp1597
aa(lp1598
(I4
I1
tp1599
a(I9
I1
tp1600
a(I13
I1
tp1601
a(I260
I1
tp1602
a(I383
I1
tp1603
a(I407
I1
tp1604
a(I408
I1
tp1605
a(I409
I1
tp1606
aa(lp1607
(I174
I1
tp1608
a(I260
I1
tp1609
a(I410
I1
tp1610
aa(lp1611
(I259
I1
tp1612
a(I410
I1
tp1613
a(I411
I1
tp1614
a(I412
I1
tp1615
aa(lp1616
(I174
I1
tp1617
a(I260
I1
tp1618
a(I413
I1
tp1619
aa(lp1620
(I174
I1
tp1621
a(I259
I1
tp1622
a(I260
I1
tp1623
a(I414
I1
tp1624
aa(lp1625
(I174
I1
tp1626
a(I260
I1
tp1627
a(I413
I1
tp1628
a(I415
I1
tp1629
aa(lp1630
(I4
I1
tp1631
a(I191
I1
tp1632
a(I382
I1
tp1633
aa(lp1634
(I13
I1
tp1635
a(I191
I1
tp1636
a(I416
I1
tp1637
a(I417
I1
tp1638
aa(lp1639
(I13
I1
tp1640
a(I29
I1
tp1641
a(I45
I1
tp1642
a(I416
I1
tp1643
a(I417
I1
tp1644
aa(lp1645
(I13
I1
tp1646
a(I191
I1
tp1647
a(I418
I1
tp1648
a(I419
I1
tp1649
aa(lp1650
(I181
I1
tp1651
a(I191
I1
tp1652
aa(lp1653
(I104
I1
tp1654
a(I111
I1
tp1655
a(I118
I1
tp1656
aa(lp1657
(I19
I1
tp1658
a(I111
I1
tp1659
aa(lp1660
(I188
I1
tp1661
a(I377
I1
tp1662
a(I420
I1
tp1663
a(I421
I1
tp1664
a(I422
I1
tp1665
aa(lp1666
(I13
I1
tp1667
a(I191
I1
tp1668
a(I333
I1
tp1669
a(I350
I1
tp1670
a(I423
I1
tp1671
a(I424
I1
tp1672
aa(lp1673
(I29
I1
tp1674
a(I211
I1
tp1675
a(I347
I1
tp1676
a(I425
I1
tp1677
a(I426
I1
tp1678
aa(lp1679
(I29
I1
tp1680
a(I178
I1
tp1681
a(I211
I1
tp1682
aa(lp1683
(I29
I1
tp1684
a(I427
I1
tp1685
aa(lp1686
(I36
I1
tp1687
a(I428
I1
tp1688
aa(lp1689
(I45
I1
tp1690
a(I198
I1
tp1691
a(I240
I1
tp1692
aa(lp1693
(I13
I1
tp1694
a(I26
I1
tp1695
a(I201
I1
tp1696
a(I202
I1
tp1697
a(I294
I1
tp1698
aa(lp1699
(I13
I1
tp1700
a(I294
I1
tp1701
a(I354
I1
tp1702
a(I357
I1
tp1703
a(I358
I1
tp1704
aa(lp1705
(I13
I1
tp1706
a(I198
I1
tp1707
a(I294
I1
tp1708
a(I354
I1
tp1709
a(I429
I1
tp1710
aa(lp1711
(I26
I1
tp1712
a(I58
I1
tp1713
a(I381
I1
tp1714
a(I429
I1
tp1715
aa(lp1716
(I13
I1
tp1717
a(I223
I1
tp1718
a(I429
I1
tp1719
a(I430
I1
tp1720
aa(lp1721
(I67
I1
tp1722
a(I419
I1
tp1723
a(I429
I1
tp1724
aa(lp1725
(I105
I1
tp1726
a(I214
I1
tp1727
a(I429
I1
tp1728
aa(lp1729
(I13
I1
tp1730
a(I214
I1
tp1731
a(I429
I1
tp1732
a(I431
I1
tp1733
aa(lp1734
(I105
I1
tp1735
a(I286
I1
tp1736
a(I429
I1
tp1737
a(I432
I1
tp1738
aa(lp1739
(I56
I1
tp1740
a(I93
I1
tp1741
a(I255
I1
tp1742
a(I429
I1
tp1743
a(I433
I1
tp1744
aa(lp1745
(I186
I1
tp1746
a(I226
I1
tp1747
a(I378
I1
tp1748
a(I383
I1
tp1749
aa(lp1750
(I188
I1
tp1751
a(I434
I1
tp1752
a(I435
I1
tp1753
a(I436
I1
tp1754
a(I437
I1
tp1755
aa(lp1756
(I9
I1
tp1757
a(I13
I1
tp1758
a(I438
I1
tp1759
a(I439
I1
tp1760
aa(lp1761
(I4
I1
tp1762
a(I64
I1
tp1763
a(I132
I1
tp1764
a(I440
I1
tp1765
a(I441
I1
tp1766
aa(lp1767
(I4
I1
tp1768
a(I64
I1
tp1769
a(I132
I1
tp1770
a(I223
I1
tp1771
a(I442
I1
tp1772
aa(lp1773
(I9
I1
tp1774
a(I188
I1
tp1775
a(I191
I1
tp1776
a(I443
I1
tp1777
aa(lp1778
(I9
I1
tp1779
a(I188
I1
tp1780
a(I444
I1
tp1781
aa(lp1782
(I9
I1
tp1783
a(I188
I1
tp1784
a(I445
I1
tp1785
aa(lp1786
(I9
I1
tp1787
a(I188
I1
tp1788
a(I428
I1
tp1789
aa(lp1790
(I132
I1
tp1791
a(I184
I1
tp1792
a(I440
I1
tp1793
a(I446
I1
tp1794
a(I447
I1
tp1795
aa(lp1796
(I13
I1
tp1797
a(I259
I1
tp1798
a(I333
I1
tp1799
a(I350
I1
tp1800
a(I423
I1
tp1801
a(I448
I1
tp1802
a(I449
I1
tp1803
a(I450
I1
tp1804
aa(lp1805
(I211
I1
tp1806
a(I232
I1
tp1807
a(I451
I1
tp1808
aa(lp1809
(I452
I1
tp1810
a(I453
I1
tp1811
aa(lp1812
(I11
I1
tp1813
a(I105
I1
tp1814
a(I454
I1
tp1815
a(I455
I1
tp1816
aa(lp1817
(I9
I1
tp1818
a(I188
I1
tp1819
a(I279
I1
tp1820
a(I456
I1
tp1821
aa(lp1822
(I4
I1
tp1823
a(I115
I1
tp1824
a(I282
I1
tp1825
a(I403
I1
tp1826
a(I430
I1
tp1827
aa(lp1828
(I4
I1
tp1829
a(I395
I1
tp1830
a(I457
I1
tp1831
aa(lp1832
(I11
I1
tp1833
a(I24
I1
tp1834
a(I205
I1
tp1835
a(I458
I1
tp1836
a(I459
I1
tp1837
a(I460
I1
tp1838
aa(lp1839
(I461
I1
tp1840
aa(lp1841
(I2
I1
tp1842
a(I4
I1
tp1843
a(I293
I1
tp1844
a(I294
I1
tp1845
aa(lp1846
(I2
I1
tp1847
a(I13
I1
tp1848
a(I143
I1
tp1849
a(I462
I1
tp1850
a(I463
I1
tp1851
a(I464
I1
tp1852
a(I465
I1
tp1853
aa(lp1854
(I67
I1
tp1855
a(I70
I1
tp1856
a(I85
I1
tp1857
aa(lp1858
(I3
I1
tp1859
a(I13
I1
tp1860
a(I73
I1
tp1861
a(I191
I1
tp1862
a(I466
I1
tp1863
a(I467
I1
tp1864
aa(lp1865
(I67
I1
tp1866
a(I70
I1
tp1867
a(I82
I1
tp1868
a(I89
I1
tp1869
a(I468
I1
tp1870
aa(lp1871
(I70
I1
tp1872
a(I95
I1
tp1873
a(I468
I1
tp1874
aa(lp1875
(I70
I1
tp1876
a(I89
I1
tp1877
a(I183
I1
tp1878
a(I468
I1
tp1879
aa(lp1880
(I75
I1
tp1881
a(I77
I1
tp1882
a(I82
I1
tp1883
a(I468
I1
tp1884
aa(lp1885
(I34
I1
tp1886
a(I35
I1
tp1887
a(I73
I1
tp1888
a(I97
I1
tp1889
a(I164
I1
tp1890
a(I302
I1
tp1891
a(I469
I1
tp1892
a(I470
I1
tp1893
a(I471
I1
tp1894
aa(lp1895
(I34
I1
tp1896
a(I35
I1
tp1897
a(I73
I1
tp1898
a(I107
I1
tp1899
a(I164
I1
tp1900
a(I370
I1
tp1901
a(I469
I1
tp1902
a(I472
I1
tp1903
a(I473
I1
tp1904
a(I474
I1
tp1905
aa(lp1906
(I34
I1
tp1907
a(I35
I1
tp1908
a(I73
I1
tp1909
a(I107
I1
tp1910
a(I164
I1
tp1911
a(I469
I1
tp1912
a(I470
I1
tp1913
a(I475
I1
tp1914
a(I476
I1
tp1915
aa(lp1916
(I67
I1
tp1917
a(I70
I1
tp1918
a(I71
I1
tp1919
a(I477
I1
tp1920
aa(lp1921
(I70
I1
tp1922
a(I77
I1
tp1923
a(I82
I1
tp1924
a(I468
I1
tp1925
aa(lp1926
(I13
I1
tp1927
a(I61
I1
tp1928
a(I237
I1
tp1929
a(I400
I1
tp1930
a(I402
I1
tp1931
aa(lp1932
(I0
I1
tp1933
a(I13
I2
tp1934
a(I73
I1
tp1935
a(I191
I1
tp1936
a(I478
I1
tp1937
a(I479
I1
tp1938
a(I480
I1
tp1939
aa(lp1940
(I73
I1
tp1941
a(I83
I1
tp1942
a(I481
I1
tp1943
a(I482
I1
tp1944
a(I483
I1
tp1945
aa(lp1946
(I56
I1
tp1947
a(I67
I1
tp1948
a(I73
I1
tp1949
a(I186
I1
tp1950
a(I484
I1
tp1951
aa(lp1952
(I13
I1
tp1953
a(I73
I1
tp1954
a(I375
I1
tp1955
aa(lp1956
(I73
I1
tp1957
a(I199
I1
tp1958
aa(lp1959
(I485
I1
tp1960
aa(lp1961
(I13
I1
tp1962
a(I34
I1
tp1963
a(I35
I1
tp1964
a(I73
I1
tp1965
a(I164
I1
tp1966
a(I223
I1
tp1967
a(I300
I1
tp1968
a(I469
I1
tp1969
a(I486
I1
tp1970
a(I487
I1
tp1971
a(I488
I1
tp1972
a(I489
I1
tp1973
a(I490
I1
tp1974
a(I491
I1
tp1975
aa(lp1976
(I2
I1
tp1977
a(I13
I1
tp1978
a(I41
I1
tp1979
a(I492
I1
tp1980
a(I493
I1
tp1981
a(I494
I1
tp1982
aa(lp1983
(I67
I1
tp1984
a(I71
I1
tp1985
a(I75
I1
tp1986
a(I77
I1
tp1987
a(I82
I1
tp1988
a(I192
I1
tp1989
aa(lp1990
(I23
I1
tp1991
a(I67
I1
tp1992
a(I71
I1
tp1993
a(I75
I1
tp1994
a(I77
I1
tp1995
a(I82
I1
tp1996
aa(lp1997
(I67
I1
tp1998
a(I71
I1
tp1999
a(I75
I1
tp2000
a(I83
I1
tp2001
a(I95
I1
tp2002
aa(lp2003
(I492
I1
tp2004
aa(lp2005
(I128
I1
tp2006
a(I145
I1
tp2007
a(I492
I1
tp2008
aa(lp2009
(I13
I1
tp2010
a(I306
I1
tp2011
a(I492
I1
tp2012
aa(lp2013
(I2
I1
tp2014
a(I11
I1
tp2015
a(I354
I1
tp2016
a(I492
I1
tp2017
a(I495
I1
tp2018
a(I496
I1
tp2019
a(I497
I1
tp2020
a(I498
I1
tp2021
a(I499
I1
tp2022
aa(lp2023
(I37
I1
tp2024
a(I38
I1
tp2025
aa(lp2026
(I4
I1
tp2027
a(I66
I1
tp2028
a(I500
I1
tp2029
a(I501
I1
tp2030
aa(lp2031
(I3
I1
tp2032
a(I4
I1
tp2033
a(I28
I1
tp2034
a(I356
I1
tp2035
aa(lp2036
(I3
I1
tp2037
a(I4
I1
tp2038
a(I30
I1
tp2039
a(I223
I1
tp2040
a(I502
I1
tp2041
a(I503
I1
tp2042
aa(lp2043
(I2
I1
tp2044
a(I3
I1
tp2045
a(I11
I1
tp2046
a(I13
I1
tp2047
a(I223
I1
tp2048
a(I504
I1
tp2049
a(I505
I1
tp2050
a(I506
I1
tp2051
a(I507
I1
tp2052
a(I508
I1
tp2053
aa(lp2054
(I2
I1
tp2055
a(I3
I1
tp2056
a(I13
I1
tp2057
a(I223
I1
tp2058
a(I384
I1
tp2059
a(I505
I1
tp2060
a(I506
I1
tp2061
a(I507
I1
tp2062
a(I508
I1
tp2063
a(I509
I1
tp2064
a(I510
I1
tp2065
aa(lp2066
(I2
I1
tp2067
a(I3
I1
tp2068
a(I13
I1
tp2069
a(I128
I1
tp2070
a(I275
I1
tp2071
a(I360
I1
tp2072
a(I511
I1
tp2073
aa(lp2074
(I3
I1
tp2075
a(I4
I1
tp2076
a(I24
I1
tp2077
a(I61
I1
tp2078
aa(lp2079
(I3
I1
tp2080
a(I4
I1
tp2081
a(I24
I1
tp2082
a(I80
I1
tp2083
aa(lp2084
(I2
I1
tp2085
a(I3
I1
tp2086
a(I13
I1
tp2087
a(I223
I1
tp2088
a(I455
I1
tp2089
a(I512
I1
tp2090
aa(lp2091
(I2
I1
tp2092
a(I153
I1
tp2093
a(I207
I1
tp2094
a(I223
I1
tp2095
a(I250
I1
tp2096
a(I508
I1
tp2097
a(I513
I1
tp2098
aa(lp2099
(I2
I1
tp2100
a(I3
I1
tp2101
a(I45
I1
tp2102
a(I223
I1
tp2103
a(I514
I1
tp2104
aa(lp2105
(I3
I1
tp2106
a(I223
I1
tp2107
a(I340
I2
tp2108
a(I515
I1
tp2109
aa(lp2110
(I2
I1
tp2111
a(I33
I1
tp2112
a(I159
I1
tp2113
a(I223
I1
tp2114
a(I516
I1
tp2115
aa(lp2116
(I159
I1
tp2117
a(I207
I1
tp2118
a(I223
I1
tp2119
a(I316
I1
tp2120
a(I384
I1
tp2121
a(I517
I1
tp2122
aa(lp2123
(I2
I1
tp2124
a(I9
I1
tp2125
a(I188
I1
tp2126
a(I514
I1
tp2127
aa(lp2128
(I2
I1
tp2129
a(I3
I1
tp2130
a(I20
I1
tp2131
a(I45
I1
tp2132
a(I223
I1
tp2133
a(I340
I1
tp2134
aa(lp2135
(I107
I1
tp2136
a(I132
I1
tp2137
a(I484
I1
tp2138
a(I518
I1
tp2139
a(I519
I1
tp2140
a(I520
I1
tp2141
aa(lp2142
(I25
I1
tp2143
a(I521
I1
tp2144
a(I522
I1
tp2145
aa(lp2146
(I2
I1
tp2147
a(I13
I1
tp2148
a(I174
I1
tp2149
a(I514
I1
tp2150
a(I523
I1
tp2151
a(I524
I1
tp2152
aa(lp2153
(I2
I1
tp2154
a(I13
I1
tp2155
a(I18
I1
tp2156
a(I266
I1
tp2157
a(I293
I1
tp2158
a(I294
I1
tp2159
a(I340
I1
tp2160
a(I514
I1
tp2161
aa(lp2162
(I2
I1
tp2163
a(I41
I1
tp2164
a(I50
I1
tp2165
a(I514
I1
tp2166
aa(lp2167
(I2
I1
tp2168
a(I3
I1
tp2169
a(I223
I1
tp2170
a(I340
I1
tp2171
aa(lp2172
(I2
I1
tp2173
a(I13
I1
tp2174
a(I20
I1
tp2175
a(I41
I1
tp2176
a(I45
I1
tp2177
a(I50
I1
tp2178
a(I56
I1
tp2179
a(I340
I1
tp2180
a(I525
I1
tp2181
aa(lp2182
(I2
I1
tp2183
a(I3
I1
tp2184
a(I20
I1
tp2185
a(I223
I1
tp2186
a(I526
I1
tp2187
a(I527
I1
tp2188
aa(lp2189
(I13
I1
tp2190
a(I19
I1
tp2191
a(I20
I1
tp2192
a(I55
I1
tp2193
a(I340
I1
tp2194
aa(lp2195
(I20
I1
tp2196
a(I228
I1
tp2197
a(I251
I1
tp2198
a(I528
I1
tp2199
aa(lp2200
(I13
I1
tp2201
a(I20
I1
tp2202
a(I45
I1
tp2203
a(I105
I1
tp2204
a(I307
I1
tp2205
a(I315
I1
tp2206
aa(lp2207
(I2
I1
tp2208
a(I41
I1
tp2209
a(I56
I1
tp2210
a(I186
I1
tp2211
a(I514
I1
tp2212
aa(lp2213
(I2
I1
tp2214
a(I64
I1
tp2215
a(I188
I1
tp2216
a(I440
I1
tp2217
a(I514
I1
tp2218
aa(lp2219
(I2
I1
tp2220
a(I13
I1
tp2221
a(I193
I1
tp2222
a(I514
I1
tp2223
aa(lp2224
(I2
I1
tp2225
a(I13
I1
tp2226
a(I41
I1
tp2227
a(I174
I1
tp2228
a(I282
I1
tp2229
a(I514
I1
tp2230
aa(lp2231
(I2
I1
tp2232
a(I3
I1
tp2233
a(I13
I1
tp2234
a(I18
I1
tp2235
a(I28
I1
tp2236
a(I45
I1
tp2237
a(I223
I1
tp2238
a(I266
I1
tp2239
a(I340
I1
tp2240
aa(lp2241
(I2
I1
tp2242
a(I13
I1
tp2243
a(I20
I2
tp2244
a(I45
I1
tp2245
a(I50
I1
tp2246
a(I97
I1
tp2247
a(I252
I1
tp2248
a(I340
I2
tp2249
a(I426
I1
tp2250
a(I529
I1
tp2251
a(I530
I1
tp2252
aa(lp2253
(I2
I1
tp2254
a(I19
I1
tp2255
a(I20
I1
tp2256
a(I55
I1
tp2257
a(I526
I1
tp2258
a(I527
I1
tp2259
aa(lp2260
(I2
I1
tp2261
a(I19
I1
tp2262
a(I20
I1
tp2263
a(I105
I1
tp2264
a(I526
I1
tp2265
a(I527
I1
tp2266
aa(lp2267
(I2
I1
tp2268
a(I13
I1
tp2269
a(I20
I1
tp2270
a(I47
I1
tp2271
a(I167
I1
tp2272
a(I228
I1
tp2273
a(I340
I1
tp2274
a(I531
I1
tp2275
aa(lp2276
(I2
I1
tp2277
a(I13
I1
tp2278
a(I18
I1
tp2279
a(I30
I1
tp2280
a(I41
I1
tp2281
a(I45
I1
tp2282
a(I50
I1
tp2283
a(I56
I1
tp2284
a(I266
I1
tp2285
a(I340
I2
tp2286
a(I525
I1
tp2287
aa(lp2288
(I0
I1
tp2289
a(I2
I1
tp2290
a(I3
I1
tp2291
a(I19
I1
tp2292
a(I42
I1
tp2293
a(I72
I1
tp2294
aa(lp2295
(I15
I1
tp2296
a(I23
I1
tp2297
a(I423
I1
tp2298
a(I527
I1
tp2299
a(I532
I1
tp2300
a(I533
I1
tp2301
aa(lp2302
(I2
I1
tp2303
a(I19
I1
tp2304
a(I21
I1
tp2305
a(I105
I1
tp2306
a(I526
I1
tp2307
a(I527
I1
tp2308
aa(lp2309
(I2
I1
tp2310
a(I19
I1
tp2311
a(I21
I1
tp2312
a(I55
I1
tp2313
a(I526
I1
tp2314
a(I527
I1
tp2315
aa(lp2316
(I2
I1
tp2317
a(I20
I1
tp2318
a(I526
I1
tp2319
a(I527
I2
tp2320
a(I534
I1
tp2321
aa(lp2322
(I2
I1
tp2323
a(I19
I1
tp2324
a(I20
I1
tp2325
a(I157
I1
tp2326
a(I526
I1
tp2327
a(I527
I1
tp2328
aa(lp2329
(I13
I1
tp2330
a(I19
I1
tp2331
a(I20
I1
tp2332
a(I282
I1
tp2333
a(I307
I1
tp2334
a(I535
I1
tp2335
a(I536
I1
tp2336
aa(lp2337
(I2
I1
tp2338
a(I13
I1
tp2339
a(I514
I1
tp2340
a(I518
I1
tp2341
aa(lp2342
(I0
I1
tp2343
a(I2
I1
tp2344
a(I3
I1
tp2345
a(I15
I1
tp2346
a(I537
I1
tp2347
aa(lp2348
(I2
I1
tp2349
a(I3
I1
tp2350
a(I145
I1
tp2351
a(I516
I1
tp2352
aa(lp2353
(I2
I1
tp2354
a(I21
I1
tp2355
a(I526
I1
tp2356
a(I527
I2
tp2357
a(I534
I1
tp2358
aa(lp2359
(I9
I1
tp2360
a(I34
I1
tp2361
a(I35
I1
tp2362
a(I188
I1
tp2363
a(I527
I1
tp2364
a(I534
I1
tp2365
aa(lp2366
(I2
I1
tp2367
a(I19
I1
tp2368
a(I21
I1
tp2369
a(I157
I1
tp2370
a(I526
I1
tp2371
a(I527
I1
tp2372
aa(lp2373
(I2
I1
tp2374
a(I20
I1
tp2375
a(I41
I1
tp2376
a(I157
I1
tp2377
a(I526
I1
tp2378
a(I527
I1
tp2379
a(I538
I1
tp2380
aa(lp2381
(I2
I1
tp2382
a(I13
I1
tp2383
a(I19
I1
tp2384
a(I157
I1
tp2385
a(I526
I1
tp2386
a(I527
I1
tp2387
a(I539
I1
tp2388
aa(lp2389
(I2
I1
tp2390
a(I184
I1
tp2391
a(I540
I1
tp2392
aa(lp2393
(I2
I1
tp2394
a(I41
I1
tp2395
a(I61
I1
tp2396
a(I157
I1
tp2397
a(I402
I1
tp2398
a(I526
I1
tp2399
a(I527
I1
tp2400
a(I538
I1
tp2401
aa(lp2402
(I2
I1
tp2403
a(I20
I1
tp2404
a(I41
I1
tp2405
a(I105
I1
tp2406
a(I526
I1
tp2407
a(I527
I1
tp2408
a(I538
I1
tp2409
aa(lp2410
(I2
I1
tp2411
a(I21
I1
tp2412
a(I41
I1
tp2413
a(I157
I1
tp2414
a(I526
I1
tp2415
a(I527
I1
tp2416
a(I538
I1
tp2417
aa(lp2418
(I2
I1
tp2419
a(I541
I1
tp2420
aa(lp2421
(I2
I1
tp2422
a(I484
I1
tp2423
a(I519
I1
tp2424
a(I526
I1
tp2425
a(I527
I1
tp2426
a(I538
I1
tp2427
a(I542
I1
tp2428
a(I543
I1
tp2429
aa(lp2430
(I20
I1
tp2431
a(I163
I1
tp2432
a(I164
I1
tp2433
a(I167
I1
tp2434
a(I228
I1
tp2435
a(I282
I1
tp2436
a(I340
I1
tp2437
a(I464
I1
tp2438
a(I544
I1
tp2439
a(I545
I1
tp2440
a(I546
I2
tp2441
a(I547
I1
tp2442
aa(lp2443
(I2
I1
tp2444
a(I13
I1
tp2445
a(I19
I1
tp2446
a(I105
I1
tp2447
a(I526
I1
tp2448
a(I527
I1
tp2449
a(I539
I1
tp2450
aa(lp2451
(I2
I1
tp2452
a(I34
I1
tp2453
a(I35
I1
tp2454
a(I148
I1
tp2455
a(I153
I1
tp2456
a(I157
I1
tp2457
a(I207
I1
tp2458
a(I526
I1
tp2459
a(I527
I1
tp2460
a(I538
I1
tp2461
aa(lp2462
(I2
I1
tp2463
a(I21
I1
tp2464
a(I41
I1
tp2465
a(I105
I1
tp2466
a(I526
I1
tp2467
a(I527
I1
tp2468
a(I538
I1
tp2469
aa(lp2470
(I2
I1
tp2471
a(I13
I1
tp2472
a(I141
I1
tp2473
a(I526
I1
tp2474
a(I527
I1
tp2475
a(I538
I1
tp2476
aa(lp2477
(I36
I1
tp2478
a(I41
I1
tp2479
a(I526
I1
tp2480
a(I527
I1
tp2481
aa(lp2482
(I2
I1
tp2483
a(I9
I1
tp2484
a(I13
I1
tp2485
a(I92
I1
tp2486
a(I188
I1
tp2487
a(I526
I1
tp2488
a(I527
I1
tp2489
a(I539
I1
tp2490
aa(lp2491
(I209
I1
tp2492
a(I282
I1
tp2493
a(I526
I1
tp2494
a(I527
I1
tp2495
aa(lp2496
(I36
I1
tp2497
a(I526
I1
tp2498
a(I527
I1
tp2499
a(I548
I1
tp2500
aa(lp2501
(I288
I1
tp2502
a(I488
I1
tp2503
a(I549
I1
tp2504
a(I550
I1
tp2505
a(I551
I1
tp2506
a(I552
I1
tp2507
a(I553
I1
tp2508
a(I554
I1
tp2509
aa(lp2510
(I555
I1
tp2511
a(I556
I1
tp2512
a(I557
I1
tp2513
a(I558
I1
tp2514
aa(lp2515
(I2
I1
tp2516
a(I15
I1
tp2517
a(I89
I1
tp2518
a(I219
I1
tp2519
a(I559
I1
tp2520
a(I560
I1
tp2521
a(I561
I1
tp2522
a(I562
I1
tp2523
a(I563
I1
tp2524
a(I564
I1
tp2525
aa(lp2526
(I13
I1
tp2527
a(I36
I1
tp2528
a(I565
I1
tp2529
aa(lp2530
(I13
I1
tp2531
a(I34
I1
tp2532
a(I35
I1
tp2533
a(I37
I1
tp2534
a(I565
I1
tp2535
a(I566
I1
tp2536
aa(lp2537
(I13
I1
tp2538
a(I34
I1
tp2539
a(I128
I1
tp2540
a(I145
I1
tp2541
a(I565
I1
tp2542
aa(lp2543
(I13
I1
tp2544
a(I34
I1
tp2545
a(I35
I1
tp2546
a(I66
I1
tp2547
a(I128
I1
tp2548
a(I565
I1
tp2549
a(I567
I1
tp2550
aa(lp2551
(I20
I1
tp2552
a(I132
I1
tp2553
a(I464
I1
tp2554
a(I544
I1
tp2555
aa(lp2556
(I544
I1
tp2557
a(I568
I1
tp2558
a(I569
I1
tp2559
a(I570
I1
tp2560
a(I571
I1
tp2561
aa(lp2562
(I11
I1
tp2563
a(I274
I1
tp2564
a(I282
I1
tp2565
a(I544
I1
tp2566
a(I572
I1
tp2567
aa(lp2568
(I313
I1
tp2569
a(I544
I1
tp2570
a(I573
I1
tp2571
a(I574
I1
tp2572
a(I575
I1
tp2573
aa(lp2574
(I13
I1
tp2575
a(I21
I1
tp2576
a(I209
I1
tp2577
a(I282
I1
tp2578
a(I546
I1
tp2579
a(I576
I1
tp2580
a(I577
I1
tp2581
aa(lp2582
(I209
I1
tp2583
a(I282
I1
tp2584
a(I521
I1
tp2585
a(I578
I1
tp2586
a(I579
I1
tp2587
a(I580
I1
tp2588
aa(lp2589
(I21
I1
tp2590
a(I132
I1
tp2591
a(I307
I1
tp2592
a(I464
I1
tp2593
a(I546
I1
tp2594
aa(lp2595
(I581
I1
tp2596
a(I582
I1
tp2597
aa(lp2598
(I313
I1
tp2599
a(I544
I1
tp2600
a(I573
I1
tp2601
a(I583
I1
tp2602
aa(lp2603
(I313
I1
tp2604
a(I544
I1
tp2605
a(I573
I1
tp2606
a(I575
I1
tp2607
a(I584
I1
tp2608
aa(lp2609
(I9
I1
tp2610
a(I20
I1
tp2611
a(I298
I1
tp2612
a(I316
I1
tp2613
a(I321
I1
tp2614
a(I330
I1
tp2615
a(I334
I1
tp2616
a(I573
I1
tp2617
a(I585
I1
tp2618
a(I586
I1
tp2619
a(I587
I1
tp2620
aa(lp2621
(I11
I1
tp2622
a(I20
I1
tp2623
a(I167
I1
tp2624
a(I282
I1
tp2625
a(I289
I1
tp2626
a(I297
I1
tp2627
a(I320
I1
tp2628
a(I544
I1
tp2629
a(I573
I1
tp2630
a(I575
I1
tp2631
a(I584
I1
tp2632
a(I588
I1
tp2633
a(I589
I1
tp2634
aa(lp2635
(I2
I1
tp2636
a(I11
I1
tp2637
a(I23
I1
tp2638
a(I153
I1
tp2639
a(I167
I1
tp2640
a(I272
I1
tp2641
a(I292
I1
tp2642
a(I298
I1
tp2643
a(I321
I1
tp2644
a(I590
I1
tp2645
a(I591
I1
tp2646
a(I592
I1
tp2647
a(I593
I1
tp2648
a(I594
I1
tp2649
a(I595
I1
tp2650
aa(lp2651
(I20
I1
tp2652
a(I34
I1
tp2653
a(I35
I2
tp2654
a(I153
I1
tp2655
a(I285
I1
tp2656
a(I297
I2
tp2657
a(I307
I1
tp2658
a(I316
I2
tp2659
a(I321
I3
tp2660
a(I596
I1
tp2661
a(I597
I1
tp2662
a(I598
I1
tp2663
a(I599
I1
tp2664
a(I600
I1
tp2665
a(I601
I1
tp2666
a(I602
I1
tp2667
aa(lp2668
(I23
I1
tp2669
a(I40
I1
tp2670
a(I163
I1
tp2671
a(I298
I1
tp2672
a(I321
I1
tp2673
a(I591
I1
tp2674
a(I603
I1
tp2675
a(I604
I1
tp2676
a(I605
I1
tp2677
a(I606
I1
tp2678
a(I607
I1
tp2679
a(I608
I1
tp2680
a(I609
I1
tp2681
aa(lp2682
(I13
I1
tp2683
a(I20
I3
tp2684
a(I56
I2
tp2685
a(I164
I1
tp2686
a(I167
I1
tp2687
a(I299
I2
tp2688
a(I300
I1
tp2689
a(I303
I1
tp2690
a(I307
I3
tp2691
a(I316
I1
tp2692
a(I333
I1
tp2693
a(I340
I1
tp2694
a(I546
I1
tp2695
a(I578
I1
tp2696
a(I610
I1
tp2697
a(I611
I1
tp2698
a(I612
I1
tp2699
a(I613
I1
tp2700
a(I614
I1
tp2701
a(I615
I1
tp2702
a(I616
I1
tp2703
a(I617
I1
tp2704
aa(lp2705
(I20
I1
tp2706
a(I42
I1
tp2707
a(I285
I1
tp2708
a(I298
I1
tp2709
a(I307
I1
tp2710
a(I601
I1
tp2711
a(I618
I1
tp2712
aa(lp2713
(I21
I1
tp2714
a(I34
I1
tp2715
a(I35
I1
tp2716
a(I167
I1
tp2717
a(I298
I1
tp2718
a(I591
I1
tp2719
a(I619
I1
tp2720
aa(lp2721
(I4
I1
tp2722
a(I36
I1
tp2723
a(I143
I1
tp2724
aa(lp2725
(I4
I1
tp2726
a(I282
I1
tp2727
a(I398
I1
tp2728
aa(lp2729
(I4
I1
tp2730
a(I58
I1
tp2731
a(I399
I1
tp2732
aa(lp2733
(I4
I1
tp2734
a(I13
I1
tp2735
a(I36
I1
tp2736
a(I41
I1
tp2737
aa(lp2738
(I2
I1
tp2739
a(I13
I1
tp2740
a(I36
I1
tp2741
aa(lp2742
(I2
I1
tp2743
a(I4
I1
tp2744
a(I56
I1
tp2745
a(I93
I1
tp2746
a(I620
I1
tp2747
aa(lp2748
(I4
I1
tp2749
a(I104
I1
tp2750
a(I118
I1
tp2751
a(I621
I1
tp2752
aa(lp2753
(I4
I1
tp2754
a(I36
I1
tp2755
a(I622
I1
tp2756
aa(lp2757
(I9
I1
tp2758
a(I85
I1
tp2759
a(I183
I1
tp2760
a(I188
I1
tp2761
a(I623
I1
tp2762
a(I624
I1
tp2763
aa(lp2764
(I4
I1
tp2765
a(I29
I1
tp2766
a(I41
I1
tp2767
a(I42
I1
tp2768
a(I207
I1
tp2769
aa(lp2770
(I2
I1
tp2771
a(I116
I1
tp2772
a(I128
I1
tp2773
a(I463
I1
tp2774
aa(lp2775
(I2
I1
tp2776
a(I56
I1
tp2777
a(I93
I1
tp2778
a(I625
I1
tp2779
a(I626
I1
tp2780
aa(lp2781
(I0
I1
tp2782
a(I5
I1
tp2783
a(I15
I1
tp2784
a(I56
I1
tp2785
a(I93
I1
tp2786
a(I110
I1
tp2787
a(I153
I1
tp2788
a(I555
I1
tp2789
a(I627
I1
tp2790
aa(lp2791
(I2
I1
tp2792
a(I105
I1
tp2793
a(I628
I1
tp2794
a(I629
I1
tp2795
a(I630
I1
tp2796
aa(lp2797
(I2
I1
tp2798
a(I10
I1
tp2799
a(I128
I1
tp2800
a(I133
I1
tp2801
a(I145
I1
tp2802
aa(lp2803
(I2
I1
tp2804
a(I7
I1
tp2805
a(I128
I1
tp2806
a(I133
I1
tp2807
a(I145
I1
tp2808
aa(lp2809
(I2
I1
tp2810
a(I58
I1
tp2811
a(I84
I1
tp2812
a(I88
I1
tp2813
aa(lp2814
(I34
I1
tp2815
a(I35
I1
tp2816
a(I73
I1
tp2817
a(I164
I1
tp2818
a(I191
I1
tp2819
a(I469
I1
tp2820
a(I488
I1
tp2821
a(I544
I1
tp2822
a(I631
I1
tp2823
a(I632
I1
tp2824
a(I633
I1
tp2825
a(I634
I1
tp2826
a(I635
I1
tp2827
a(I636
I1
tp2828
a(I637
I1
tp2829
a(I638
I1
tp2830
aa(lp2831
(I34
I1
tp2832
a(I35
I1
tp2833
a(I73
I1
tp2834
a(I164
I1
tp2835
a(I303
I1
tp2836
a(I469
I1
tp2837
a(I488
I1
tp2838
a(I544
I1
tp2839
a(I635
I1
tp2840
a(I637
I1
tp2841
a(I639
I1
tp2842
a(I640
I1
tp2843
a(I641
I1
tp2844
aa(lp2845
(I2
I1
tp2846
a(I105
I1
tp2847
a(I120
I1
tp2848
a(I125
I1
tp2849
a(I132
I1
tp2850
a(I289
I1
tp2851
a(I366
I1
tp2852
a(I367
I1
tp2853
a(I484
I1
tp2854
a(I642
I1
tp2855
a(I643
I1
tp2856
aa(lp2857
(I2
I1
tp2858
a(I10
I1
tp2859
a(I13
I1
tp2860
a(I644
I1
tp2861
aa(lp2862
(I145
I1
tp2863
a(I645
I1
tp2864
a(I646
I1
tp2865
a(I647
I1
tp2866
aa(lp2867
(I0
I1
tp2868
a(I2
I1
tp2869
a(I10
I1
tp2870
a(I184
I1
tp2871
a(I186
I1
tp2872
a(I648
I1
tp2873
aa(lp2874
(I145
I1
tp2875
a(I259
I1
tp2876
a(I649
I1
tp2877
a(I650
I1
tp2878
aa(lp2879
(I7
I1
tp2880
a(I13
I1
tp2881
a(I644
I1
tp2882
aa(lp2883
(I0
I1
tp2884
a(I13
I1
tp2885
a(I184
I1
tp2886
a(I186
I1
tp2887
a(I648
I1
tp2888
aa(lp2889
(I4
I1
tp2890
a(I104
I1
tp2891
a(I419
I1
tp2892
a(I621
I1
tp2893
aa(lp2894
(I4
I1
tp2895
a(I29
I1
tp2896
a(I31
I1
tp2897
a(I75
I1
tp2898
aa(lp2899
(I4
I1
tp2900
a(I25
I1
tp2901
a(I29
I1
tp2902
a(I75
I1
tp2903
aa(lp2904
(I4
I1
tp2905
a(I24
I1
tp2906
a(I29
I1
tp2907
a(I59
I1
tp2908
a(I487
I1
tp2909
aa(lp2910
(I0
I1
tp2911
a(I11
I1
tp2912
a(I121
I1
tp2913
a(I651
I1
tp2914
aa(lp2915
(I4
I1
tp2916
a(I110
I1
tp2917
a(I111
I1
tp2918
a(I118
I1
tp2919
aa(lp2920
(I30
I1
tp2921
a(I56
I1
tp2922
a(I89
I1
tp2923
a(I93
I1
tp2924
a(I183
I1
tp2925
a(I652
I1
tp2926
a(I653
I1
tp2927
a(I654
I1
tp2928
aa(lp2929
(I2
I1
tp2930
a(I3
I1
tp2931
a(I13
I1
tp2932
a(I652
I1
tp2933
a(I655
I1
tp2934
aa(lp2935
(I207
I1
tp2936
a(I655
I1
tp2937
aa(lp2938
(I56
I1
tp2939
a(I116
I1
tp2940
a(I258
I1
tp2941
a(I625
I1
tp2942
a(I626
I1
tp2943
a(I656
I1
tp2944
a(I657
I1
tp2945
aa(lp2946
(I36
I1
tp2947
a(I41
I1
tp2948
a(I120
I1
tp2949
a(I658
I1
tp2950
aa(lp2951
(I659
I1
tp2952
aa(lp2953
(I36
I1
tp2954
a(I54
I1
tp2955
aa(lp2956
(I4
I1
tp2957
a(I75
I1
tp2958
a(I221
I1
tp2959
aa(lp2960
(I249
I1
tp2961
a(I276
I1
tp2962
a(I463
I1
tp2963
a(I660
I1
tp2964
a(I661
I1
tp2965
a(I662
I1
tp2966
aa(lp2967
(I2
I1
tp2968
a(I249
I1
tp2969
a(I463
I1
tp2970
a(I661
I1
tp2971
a(I662
I1
tp2972
aa(lp2973
(I2
I1
tp2974
a(I128
I1
tp2975
a(I145
I1
tp2976
a(I463
I1
tp2977
aa(lp2978
(I2
I1
tp2979
a(I13
I1
tp2980
a(I19
I1
tp2981
a(I116
I1
tp2982
a(I663
I1
tp2983
a(I664
I1
tp2984
a(I665
I1
tp2985
aa(lp2986
(I2
I2
tp2987
a(I56
I1
tp2988
a(I93
I1
tp2989
a(I625
I1
tp2990
a(I626
I1
tp2991
aa(lp2992
(I19
I1
tp2993
a(I67
I1
tp2994
a(I666
I1
tp2995
aa(lp2996
(I2
I1
tp2997
a(I13
I1
tp2998
a(I105
I1
tp2999
a(I188
I1
tp3000
a(I289
I1
tp3001
a(I364
I1
tp3002
a(I366
I1
tp3003
a(I419
I1
tp3004
a(I667
I1
tp3005
a(I668
I1
tp3006
a(I669
I1
tp3007
aa(lp3008
(I2
I1
tp3009
a(I120
I1
tp3010
a(I289
I1
tp3011
a(I642
I1
tp3012
a(I643
I1
tp3013
aa(lp3014
(I0
I1
tp3015
a(I57
I1
tp3016
a(I384
I1
tp3017
a(I648
I1
tp3018
a(I670
I1
tp3019
aa(lp3020
(I0
I1
tp3021
a(I2
I1
tp3022
a(I184
I1
tp3023
a(I186
I1
tp3024
a(I648
I1
tp3025
a(I671
I1
tp3026
aa(lp3027
(I0
I1
tp3028
a(I2
I1
tp3029
a(I10
I1
tp3030
a(I419
I1
tp3031
a(I648
I1
tp3032
a(I672
I1
tp3033
aa(lp3034
(I0
I1
tp3035
a(I2
I1
tp3036
a(I8
I1
tp3037
a(I16
I1
tp3038
a(I184
I1
tp3039
a(I186
I1
tp3040
a(I648
I1
tp3041
aa(lp3042
(I0
I1
tp3043
a(I31
I1
tp3044
a(I648
I1
tp3045
a(I673
I1
tp3046
a(I674
I1
tp3047
aa(lp3048
(I0
I1
tp3049
a(I2
I1
tp3050
a(I7
I1
tp3051
a(I184
I1
tp3052
a(I186
I1
tp3053
a(I648
I1
tp3054
aa(lp3055
(I4
I1
tp3056
a(I111
I1
tp3057
a(I214
I1
tp3058
aa(lp3059
(I4
I1
tp3060
a(I13
I1
tp3061
a(I287
I1
tp3062
a(I364
I1
tp3063
a(I365
I1
tp3064
a(I367
I1
tp3065
aa(lp3066
(I36
I1
tp3067
a(I110
I1
tp3068
aa(lp3069
(I4
I1
tp3070
a(I26
I1
tp3071
a(I367
I1
tp3072
a(I460
I1
tp3073
a(I675
I1
tp3074
a(I676
I1
tp3075
aa(lp3076
(I3
I1
tp3077
a(I120
I1
tp3078
a(I677
I1
tp3079
aa(lp3080
(I2
I1
tp3081
a(I67
I1
tp3082
a(I115
I1
tp3083
a(I116
I1
tp3084
aa(lp3085
(I5
I1
tp3086
a(I93
I1
tp3087
a(I230
I1
tp3088
a(I383
I1
tp3089
a(I666
I1
tp3090
aa(lp3091
(I66
I1
tp3092
a(I67
I1
tp3093
a(I219
I1
tp3094
a(I463
I1
tp3095
a(I513
I1
tp3096
a(I666
I1
tp3097
aa(lp3098
(I2
I1
tp3099
a(I34
I1
tp3100
a(I35
I1
tp3101
a(I56
I1
tp3102
a(I115
I1
tp3103
a(I116
I1
tp3104
a(I678
I1
tp3105
aa(lp3106
(I93
I1
tp3107
a(I115
I1
tp3108
a(I116
I1
tp3109
a(I383
I1
tp3110
a(I679
I1
tp3111
a(I680
I1
tp3112
aa(lp3113
(I64
I1
tp3114
a(I89
I1
tp3115
a(I132
I1
tp3116
a(I288
I1
tp3117
aa(lp3118
(I3
I1
tp3119
a(I217
I1
tp3120
aa(lp3121
(I3
I1
tp3122
a(I13
I1
tp3123
a(I62
I1
tp3124
a(I89
I1
tp3125
a(I681
I1
tp3126
a(I682
I1
tp3127
aa(lp3128
(I11
I1
tp3129
a(I59
I1
tp3130
a(I167
I1
tp3131
a(I683
I1
tp3132
a(I684
I1
tp3133
aa(lp3134
(I2
I1
tp3135
a(I65
I1
tp3136
a(I116
I1
tp3137
a(I419
I1
tp3138
a(I663
I1
tp3139
a(I664
I1
tp3140
a(I665
I1
tp3141
aa(lp3142
(I116
I1
tp3143
a(I128
I1
tp3144
a(I288
I1
tp3145
a(I550
I1
tp3146
a(I567
I1
tp3147
a(I685
I1
tp3148
aa(lp3149
(I2
I1
tp3150
a(I56
I1
tp3151
a(I116
I1
tp3152
a(I186
I1
tp3153
a(I686
I1
tp3154
aa(lp3155
(I2
I1
tp3156
a(I463
I1
tp3157
a(I687
I1
tp3158
aa(lp3159
(I2
I1
tp3160
a(I36
I1
tp3161
a(I463
I1
tp3162
aa(lp3163
(I276
I1
tp3164
a(I660
I1
tp3165
a(I679
I1
tp3166
a(I688
I1
tp3167
aa(lp3168
(I288
I1
tp3169
a(I289
I1
tp3170
aa(lp3171
(I2
I1
tp3172
a(I13
I1
tp3173
a(I145
I1
tp3174
a(I288
I1
tp3175
a(I289
I2
tp3176
a(I419
I1
tp3177
a(I689
I1
tp3178
aa(lp3179
(I288
I1
tp3180
a(I690
I1
tp3181
aa(lp3182
(I288
I1
tp3183
a(I691
I1
tp3184
aa(lp3185
(I288
I1
tp3186
a(I692
I1
tp3187
aa(lp3188
(I288
I1
tp3189
a(I693
I1
tp3190
aa(lp3191
(I64
I1
tp3192
a(I188
I1
tp3193
a(I683
I1
tp3194
a(I684
I1
tp3195
a(I694
I1
tp3196
aa(lp3197
(I5
I1
tp3198
a(I230
I1
tp3199
a(I463
I1
tp3200
a(I695
I1
tp3201
a(I696
I1
tp3202
aa(lp3203
(I2
I1
tp3204
a(I13
I1
tp3205
a(I66
I1
tp3206
a(I116
I1
tp3207
a(I178
I1
tp3208
a(I678
I1
tp3209
a(I697
I1
tp3210
a(I698
I1
tp3211
aa(lp3212
(I2
I1
tp3213
a(I61
I1
tp3214
a(I116
I1
tp3215
a(I664
I1
tp3216
a(I679
I1
tp3217
aa(lp3218
(I13
I1
tp3219
a(I219
I1
tp3220
a(I294
I1
tp3221
a(I354
I1
tp3222
a(I463
I1
tp3223
a(I699
I1
tp3224
aa(lp3225
(I2
I1
tp3226
a(I11
I1
tp3227
a(I105
I1
tp3228
a(I664
I1
tp3229
aa(lp3230
(I0
I1
tp3231
a(I9
I1
tp3232
a(I188
I1
tp3233
a(I379
I1
tp3234
a(I700
I1
tp3235
aa(lp3236
(I13
I1
tp3237
a(I50
I1
tp3238
a(I249
I1
tp3239
a(I282
I1
tp3240
a(I285
I1
tp3241
a(I300
I1
tp3242
a(I334
I1
tp3243
a(I505
I1
tp3244
a(I512
I1
tp3245
a(I513
I1
tp3246
a(I701
I1
tp3247
a(I702
I1
tp3248
aa(lp3249
(I0
I1
tp3250
a(I294
I1
tp3251
a(I703
I1
tp3252
a(I704
I1
tp3253
a(I705
I3
tp3254
a(I706
I1
tp3255
aa(lp3256
(I13
I1
tp3257
a(I16
I1
tp3258
a(I64
I1
tp3259
a(I65
I1
tp3260
a(I145
I1
tp3261
a(I383
I1
tp3262
a(I707
I1
tp3263
aa(lp3264
(I2
I1
tp3265
a(I116
I1
tp3266
a(I679
I1
tp3267
a(I688
I1
tp3268
aa(lp3269
(I11
I1
tp3270
a(I683
I1
tp3271
a(I684
I1
tp3272
aa(lp3273
(I5
I1
tp3274
a(I13
I1
tp3275
a(I133
I1
tp3276
a(I174
I1
tp3277
a(I230
I1
tp3278
a(I463
I1
tp3279
a(I695
I1
tp3280
a(I696
I1
tp3281
aa(lp3282
(I5
I1
tp3283
a(I116
I1
tp3284
a(I230
I1
tp3285
a(I708
I1
tp3286
aa(lp3287
(I2
I1
tp3288
a(I18
I1
tp3289
a(I56
I1
tp3290
a(I116
I1
tp3291
a(I178
I1
tp3292
a(I182
I1
tp3293
a(I626
I1
tp3294
aa(lp3295
(I2
I1
tp3296
a(I18
I1
tp3297
a(I56
I1
tp3298
a(I116
I1
tp3299
a(I285
I1
tp3300
a(I626
I1
tp3301
aa(lp3302
(I13
I1
tp3303
a(I626
I1
tp3304
a(I709
I1
tp3305
a(I710
I1
tp3306
aa(lp3307
(I2
I1
tp3308
a(I56
I1
tp3309
a(I116
I1
tp3310
a(I186
I1
tp3311
a(I664
I1
tp3312
aa(lp3313
(I13
I1
tp3314
a(I125
I1
tp3315
a(I186
I1
tp3316
a(I294
I1
tp3317
a(I354
I1
tp3318
a(I463
I1
tp3319
a(I532
I1
tp3320
a(I699
I1
tp3321
aa(lp3322
(I2
I1
tp3323
a(I56
I1
tp3324
a(I93
I1
tp3325
a(I463
I1
tp3326
a(I695
I1
tp3327
a(I696
I1
tp3328
aa(lp3329
(I0
I1
tp3330
a(I13
I1
tp3331
a(I45
I1
tp3332
a(I379
I1
tp3333
a(I700
I1
tp3334
a(I711
I1
tp3335
aa(lp3336
(I11
I1
tp3337
a(I105
I1
tp3338
a(I463
I1
tp3339
a(I712
I1
tp3340
aa(lp3341
(I0
I1
tp3342
a(I11
I1
tp3343
a(I50
I1
tp3344
a(I705
I1
tp3345
a(I706
I1
tp3346
aa(lp3347
(I0
I1
tp3348
a(I11
I1
tp3349
a(I50
I1
tp3350
a(I703
I1
tp3351
a(I705
I1
tp3352
aa(lp3353
(I2
I1
tp3354
a(I11
I1
tp3355
a(I50
I1
tp3356
aa(lp3357
(I13
I1
tp3358
a(I16
I2
tp3359
a(I154
I1
tp3360
a(I293
I1
tp3361
a(I294
I1
tp3362
a(I713
I1
tp3363
aa(lp3364
(I11
I1
tp3365
a(I16
I1
tp3366
a(I145
I1
tp3367
aa(lp3368
(I23
I1
tp3369
a(I105
I1
tp3370
a(I116
I1
tp3371
a(I216
I1
tp3372
a(I708
I1
tp3373
aa(lp3374
(I21
I1
tp3375
a(I105
I1
tp3376
a(I116
I1
tp3377
a(I216
I1
tp3378
a(I708
I1
tp3379
aa(lp3380
(I20
I1
tp3381
a(I105
I1
tp3382
a(I116
I1
tp3383
a(I216
I1
tp3384
a(I708
I1
tp3385
aa(lp3386
(I51
I1
tp3387
a(I714
I1
tp3388
a(I715
I1
tp3389
a(I716
I1
tp3390
a(I717
I1
tp3391
aa(lp3392
(I51
I1
tp3393
a(I550
I1
tp3394
a(I714
I1
tp3395
a(I715
I1
tp3396
a(I717
I1
tp3397
aa(lp3398
(I51
I1
tp3399
a(I714
I1
tp3400
a(I715
I1
tp3401
a(I717
I1
tp3402
a(I718
I1
tp3403
aa(lp3404
(I13
I1
tp3405
a(I15
I1
tp3406
a(I66
I1
tp3407
a(I120
I1
tp3408
a(I717
I1
tp3409
a(I718
I1
tp3410
a(I719
I1
tp3411
aa(lp3412
(I2
I1
tp3413
a(I115
I1
tp3414
a(I116
I1
tp3415
a(I128
I1
tp3416
a(I216
I1
tp3417
a(I678
I1
tp3418
aa(lp3419
(I41
I1
tp3420
a(I116
I1
tp3421
a(I178
I1
tp3422
a(I383
I1
tp3423
a(I678
I1
tp3424
a(I702
I1
tp3425
aa(lp3426
(I19
I1
tp3427
a(I469
I1
tp3428
a(I626
I1
tp3429
a(I709
I1
tp3430
a(I710
I1
tp3431
aa(lp3432
(I21
I1
tp3433
a(I216
I1
tp3434
a(I626
I1
tp3435
a(I709
I1
tp3436
a(I710
I1
tp3437
aa(lp3438
(I20
I1
tp3439
a(I216
I1
tp3440
a(I626
I1
tp3441
a(I709
I1
tp3442
a(I710
I1
tp3443
aa(lp3444
(I23
I1
tp3445
a(I216
I1
tp3446
a(I626
I1
tp3447
a(I709
I1
tp3448
a(I710
I1
tp3449
aa(lp3450
(I367
I1
tp3451
a(I626
I1
tp3452
a(I709
I1
tp3453
aa(lp3454
(I15
I1
tp3455
a(I388
I1
tp3456
a(I720
I1
tp3457
aa(lp3458
(I15
I1
tp3459
a(I626
I1
tp3460
a(I720
I1
tp3461
aa(lp3462
(I51
I1
tp3463
a(I60
I1
tp3464
a(I116
I1
tp3465
a(I285
I1
tp3466
a(I293
I1
tp3467
a(I383
I1
tp3468
a(I516
I1
tp3469
a(I656
I1
tp3470
a(I662
I1
tp3471
a(I721
I1
tp3472
a(I722
I1
tp3473
aa(lp3474
(I2
I1
tp3475
a(I25
I1
tp3476
a(I116
I1
tp3477
a(I663
I1
tp3478
a(I664
I1
tp3479
a(I665
I1
tp3480
aa(lp3481
(I0
I2
tp3482
a(I31
I1
tp3483
a(I711
I2
tp3484
a(I723
I2
tp3485
a(I724
I1
tp3486
aa(lp3487
(I0
I1
tp3488
a(I13
I1
tp3489
a(I45
I1
tp3490
a(I216
I1
tp3491
a(I217
I1
tp3492
a(I379
I1
tp3493
a(I700
I1
tp3494
a(I711
I1
tp3495
aa(lp3496
(I0
I1
tp3497
a(I13
I1
tp3498
a(I45
I1
tp3499
a(I83
I1
tp3500
a(I216
I1
tp3501
a(I379
I1
tp3502
a(I700
I1
tp3503
a(I711
I1
tp3504
aa(lp3505
(I2
I1
tp3506
a(I50
I1
tp3507
a(I705
I1
tp3508
a(I725
I1
tp3509
aa(lp3510
(I0
I1
tp3511
a(I50
I1
tp3512
a(I292
I1
tp3513
aa(lp3514
(I132
I1
tp3515
a(I726
I1
tp3516
a(I727
I1
tp3517
a(I728
I1
tp3518
a(I729
I1
tp3519
aa(lp3520
(I128
I1
tp3521
a(I145
I1
tp3522
a(I288
I1
tp3523
a(I567
I1
tp3524
a(I730
I1
tp3525
aa(lp3526
(I128
I1
tp3527
a(I145
I1
tp3528
a(I288
I1
tp3529
a(I550
I1
tp3530
a(I567
I1
tp3531
aa(lp3532
(I2
I1
tp3533
a(I50
I1
tp3534
a(I188
I1
tp3535
a(I472
I1
tp3536
a(I484
I1
tp3537
a(I731
I1
tp3538
a(I732
I1
tp3539
aa(lp3540
(I2
I1
tp3541
a(I145
I1
tp3542
a(I395
I1
tp3543
aa(lp3544
(I2
I1
tp3545
a(I3
I1
tp3546
a(I13
I1
tp3547
a(I23
I1
tp3548
a(I216
I1
tp3549
a(I625
I1
tp3550
aa(lp3551
(I2
I1
tp3552
a(I3
I1
tp3553
a(I13
I1
tp3554
a(I21
I1
tp3555
a(I216
I1
tp3556
a(I625
I1
tp3557
aa(lp3558
(I2
I1
tp3559
a(I3
I1
tp3560
a(I13
I1
tp3561
a(I20
I1
tp3562
a(I216
I1
tp3563
a(I625
I1
tp3564
aa(lp3565
(I4
I1
tp3566
a(I145
I1
tp3567
a(I395
I1
tp3568
aa(lp3569
(I2
I1
tp3570
a(I462
I1
tp3571
a(I687
I1
tp3572
aa(lp3573
(I0
I1
tp3574
a(I9
I1
tp3575
a(I188
I1
tp3576
a(I292
I1
tp3577
aa(lp3578
(I0
I1
tp3579
a(I13
I1
tp3580
a(I66
I1
tp3581
a(I292
I1
tp3582
a(I464
I1
tp3583
aa(lp3584
(I0
I1
tp3585
a(I13
I1
tp3586
a(I66
I1
tp3587
a(I163
I1
tp3588
a(I292
I1
tp3589
a(I464
I1
tp3590
aa(lp3591
(I0
I1
tp3592
a(I11
I1
tp3593
a(I292
I1
tp3594
a(I367
I1
tp3595
a(I733
I1
tp3596
aa(lp3597
(I0
I1
tp3598
a(I11
I1
tp3599
a(I292
I1
tp3600
a(I728
I1
tp3601
a(I734
I1
tp3602
aa(lp3603
(I2
I1
tp3604
a(I13
I1
tp3605
a(I65
I1
tp3606
a(I97
I1
tp3607
a(I215
I1
tp3608
a(I705
I1
tp3609
a(I725
I1
tp3610
a(I735
I1
tp3611
aa(lp3612
(I0
I1
tp3613
a(I2
I1
tp3614
a(I13
I1
tp3615
a(I648
I1
tp3616
a(I705
I1
tp3617
a(I725
I1
tp3618
aa(lp3619
(I626
I1
tp3620
a(I710
I1
tp3621
a(I720
I1
tp3622
aa(lp3623
(I18
I1
tp3624
a(I41
I1
tp3625
a(I56
I1
tp3626
a(I116
I1
tp3627
a(I178
I1
tp3628
a(I285
I1
tp3629
a(I662
I1
tp3630
a(I663
I1
tp3631
a(I664
I1
tp3632
a(I665
I1
tp3633
a(I708
I1
tp3634
a(I736
I1
tp3635
a(I737
I1
tp3636
a(I738
I1
tp3637
aa(lp3638
(I5
I1
tp3639
a(I25
I1
tp3640
a(I116
I1
tp3641
a(I230
I1
tp3642
a(I708
I1
tp3643
aa(lp3644
(I67
I1
tp3645
a(I116
I1
tp3646
a(I146
I1
tp3647
a(I192
I1
tp3648
a(I316
I1
tp3649
a(I708
I1
tp3650
aa(lp3651
(I13
I1
tp3652
a(I178
I1
tp3653
a(I258
I1
tp3654
a(I739
I1
tp3655
aa(lp3656
(I25
I1
tp3657
a(I116
I1
tp3658
a(I708
I1
tp3659
aa(lp3660
(I3
I1
tp3661
a(I13
I1
tp3662
a(I61
I1
tp3663
a(I258
I1
tp3664
a(I708
I1
tp3665
aa(lp3666
(I2
I1
tp3667
a(I145
I1
tp3668
a(I462
I1
tp3669
aa(lp3670
(I0
I1
tp3671
a(I2
I1
tp3672
a(I462
I1
tp3673
a(I648
I1
tp3674
aa(lp3675
(I0
I1
tp3676
a(I132
I1
tp3677
a(I286
I1
tp3678
a(I292
I1
tp3679
a(I645
I1
tp3680
a(I652
I1
tp3681
aa(lp3682
(I0
I1
tp3683
a(I36
I1
tp3684
a(I292
I1
tp3685
aa(lp3686
(I2
I1
tp3687
a(I13
I1
tp3688
a(I66
I1
tp3689
a(I163
I1
tp3690
a(I464
I1
tp3691
a(I705
I1
tp3692
a(I725
I1
tp3693
aa(lp3694
(I2
I1
tp3695
a(I59
I1
tp3696
a(I193
I1
tp3697
a(I705
I1
tp3698
a(I725
I1
tp3699
aa(lp3700
(I2
I1
tp3701
a(I13
I1
tp3702
a(I36
I1
tp3703
a(I705
I1
tp3704
a(I725
I1
tp3705
aa(lp3706
(I21
I1
tp3707
a(I59
I1
tp3708
a(I740
I1
tp3709
aa(lp3710
(I20
I1
tp3711
a(I59
I1
tp3712
a(I740
I1
tp3713
aa(lp3714
(I23
I1
tp3715
a(I59
I1
tp3716
a(I740
I1
tp3717
aa(lp3718
(I15
I1
tp3719
a(I59
I1
tp3720
a(I69
I1
tp3721
a(I740
I1
tp3722
aa(lp3723
(I5
I1
tp3724
a(I36
I1
tp3725
a(I116
I1
tp3726
a(I230
I1
tp3727
a(I708
I1
tp3728
aa(lp3729
(I5
I1
tp3730
a(I13
I1
tp3731
a(I41
I1
tp3732
a(I178
I1
tp3733
a(I230
I1
tp3734
a(I739
I1
tp3735
aa(lp3736
(I488
I1
tp3737
a(I741
I1
tp3738
a(I742
I1
tp3739
aa(lp3740
(I488
I1
tp3741
a(I742
I1
tp3742
a(I743
I1
tp3743
aa(lp3744
(I2
I1
tp3745
a(I13
I1
tp3746
a(I66
I1
tp3747
a(I464
I1
tp3748
a(I705
I1
tp3749
a(I725
I1
tp3750
aa(lp3751
(I5
I1
tp3752
a(I19
I1
tp3753
a(I67
I1
tp3754
a(I116
I1
tp3755
a(I230
I1
tp3756
a(I708
I1
tp3757
aa(lp3758
(I4
I1
tp3759
a(I306
I1
tp3760
aa(lp3761
(I5
I1
tp3762
a(I13
I1
tp3763
a(I230
I1
tp3764
a(I306
I1
tp3765
aa(lp3766
(I2
I1
tp3767
a(I306
I1
tp3768
a(I462
I1
tp3769
aa(lp3770
(I128
I1
tp3771
a(I259
I1
tp3772
a(I661
I1
tp3773
a(I744
I1
tp3774
a(I745
I1
tp3775
a(I746
I1
tp3776
aa(lp3777
(I64
I1
tp3778
a(I132
I1
tp3779
a(I462
I1
tp3780
a(I747
I1
tp3781
aa(lp3782
(I0
I1
tp3783
a(I2
I1
tp3784
a(I648
I1
tp3785
a(I748
I1
tp3786
aa(lp3787
(I0
I1
tp3788
a(I2
I1
tp3789
a(I37
I1
tp3790
a(I462
I1
tp3791
a(I648
I1
tp3792
a(I672
I1
tp3793
aa(lp3794
(I0
I1
tp3795
a(I8
I1
tp3796
a(I43
I1
tp3797
a(I216
I1
tp3798
a(I293
I1
tp3799
a(I462
I1
tp3800
a(I465
I1
tp3801
a(I648
I1
tp3802
a(I749
I1
tp3803
aa(lp3804
(I0
I2
tp3805
a(I43
I1
tp3806
a(I83
I1
tp3807
a(I648
I1
tp3808
a(I749
I1
tp3809
aa(lp3810
(I0
I2
tp3811
a(I20
I1
tp3812
a(I43
I1
tp3813
a(I648
I1
tp3814
a(I749
I1
tp3815
aa(lp3816
(I0
I2
tp3817
a(I21
I1
tp3818
a(I43
I1
tp3819
a(I648
I1
tp3820
a(I749
I1
tp3821
aa(lp3822
(I0
I2
tp3823
a(I23
I1
tp3824
a(I43
I1
tp3825
a(I648
I1
tp3826
a(I749
I1
tp3827
aa(lp3828
(I13
I1
tp3829
a(I59
I1
tp3830
a(I193
I1
tp3831
a(I218
I1
tp3832
a(I373
I1
tp3833
aa(lp3834
(I2
I1
tp3835
a(I11
I1
tp3836
a(I145
I1
tp3837
a(I705
I1
tp3838
a(I725
I1
tp3839
aa(lp3840
(I0
I1
tp3841
a(I2
I1
tp3842
a(I11
I1
tp3843
a(I652
I1
tp3844
a(I705
I2
tp3845
a(I725
I1
tp3846
a(I750
I1
tp3847
aa(lp3848
(I59
I1
tp3849
a(I60
I1
tp3850
a(I61
I1
tp3851
a(I63
I1
tp3852
a(I740
I1
tp3853
aa(lp3854
(I4
I1
tp3855
a(I116
I1
tp3856
a(I708
I1
tp3857
aa(lp3858
(I13
I1
tp3859
a(I230
I1
tp3860
a(I306
I1
tp3861
a(I463
I1
tp3862
a(I751
I1
tp3863
a(I752
I1
tp3864
aa(lp3865
(I2
I1
tp3866
a(I64
I1
tp3867
a(I132
I1
tp3868
a(I354
I1
tp3869
a(I463
I1
tp3870
a(I493
I1
tp3871
a(I644
I1
tp3872
a(I699
I1
tp3873
aa(lp3874
(I0
I1
tp3875
a(I2
I1
tp3876
a(I13
I1
tp3877
a(I419
I1
tp3878
a(I648
I1
tp3879
a(I672
I1
tp3880
a(I748
I1
tp3881
aa(lp3882
(I0
I1
tp3883
a(I43
I1
tp3884
a(I648
I1
tp3885
a(I672
I1
tp3886
aa(lp3887
(I34
I1
tp3888
a(I35
I1
tp3889
a(I100
I1
tp3890
a(I101
I1
tp3891
a(I102
I1
tp3892
aa(lp3893
(I59
I1
tp3894
a(I193
I1
tp3895
a(I217
I1
tp3896
a(I344
I1
tp3897
aa(lp3898
(I9
I1
tp3899
a(I21
I1
tp3900
a(I59
I1
tp3901
a(I62
I1
tp3902
a(I193
I1
tp3903
a(I432
I1
tp3904
a(I753
I1
tp3905
aa(lp3906
(I9
I1
tp3907
a(I20
I1
tp3908
a(I59
I1
tp3909
a(I62
I1
tp3910
a(I193
I1
tp3911
a(I432
I1
tp3912
a(I753
I1
tp3913
aa(lp3914
(I9
I1
tp3915
a(I23
I1
tp3916
a(I59
I1
tp3917
a(I62
I1
tp3918
a(I193
I1
tp3919
a(I432
I1
tp3920
a(I753
I1
tp3921
aa(lp3922
(I20
I1
tp3923
a(I50
I1
tp3924
a(I687
I1
tp3925
aa(lp3926
(I2
I1
tp3927
a(I20
I1
tp3928
a(I497
I1
tp3929
aa(lp3930
(I13
I1
tp3931
a(I20
I1
tp3932
a(I21
I1
tp3933
a(I293
I1
tp3934
a(I294
I1
tp3935
aa(lp3936
(I3
I1
tp3937
a(I11
I1
tp3938
a(I20
I1
tp3939
a(I50
I1
tp3940
a(I56
I1
tp3941
a(I333
I1
tp3942
aa(lp3943
(I51
I1
tp3944
a(I59
I1
tp3945
a(I61
I1
tp3946
a(I740
I1
tp3947
aa(lp3948
(I4
I1
tp3949
a(I24
I1
tp3950
a(I207
I1
tp3951
a(I675
I1
tp3952
aa(lp3953
(I3
I1
tp3954
a(I4
I1
tp3955
a(I114
I1
tp3956
a(I246
I1
tp3957
aa(lp3958
(I3
I1
tp3959
a(I4
I1
tp3960
a(I258
I1
tp3961
a(I306
I1
tp3962
aa(lp3963
(I4
I1
tp3964
a(I25
I1
tp3965
a(I116
I1
tp3966
a(I708
I1
tp3967
aa(lp3968
(I2
I1
tp3969
a(I74
I1
tp3970
a(I103
I1
tp3971
a(I754
I1
tp3972
aa(lp3973
(I3
I1
tp3974
a(I34
I1
tp3975
a(I35
I1
tp3976
a(I101
I1
tp3977
a(I755
I1
tp3978
aa(lp3979
(I13
I1
tp3980
a(I163
I1
tp3981
a(I183
I1
tp3982
a(I755
I1
tp3983
a(I756
I1
tp3984
a(I757
I1
tp3985
aa(lp3986
(I34
I1
tp3987
a(I35
I1
tp3988
a(I74
I1
tp3989
a(I101
I1
tp3990
a(I755
I1
tp3991
a(I758
I1
tp3992
aa(lp3993
(I37
I1
tp3994
a(I129
I1
tp3995
a(I217
I1
tp3996
a(I462
I1
tp3997
a(I672
I1
tp3998
aa(lp3999
(I0
I1
tp4000
a(I37
I1
tp4001
a(I462
I1
tp4002
a(I648
I1
tp4003
a(I672
I1
tp4004
aa(lp4005
(I59
I1
tp4006
a(I105
I1
tp4007
a(I217
I1
tp4008
a(I469
I1
tp4009
aa(lp4010
(I11
I1
tp4011
a(I21
I1
tp4012
a(I59
I1
tp4013
a(I193
I1
tp4014
a(I207
I1
tp4015
aa(lp4016
(I13
I1
tp4017
a(I25
I1
tp4018
a(I60
I1
tp4019
a(I63
I1
tp4020
a(I203
I1
tp4021
a(I759
I1
tp4022
aa(lp4023
(I11
I1
tp4024
a(I20
I1
tp4025
a(I191
I1
tp4026
a(I207
I1
tp4027
a(I760
I1
tp4028
aa(lp4029
(I13
I1
tp4030
a(I25
I1
tp4031
a(I60
I1
tp4032
a(I63
I1
tp4033
a(I680
I1
tp4034
a(I759
I1
tp4035
aa(lp4036
(I3
I1
tp4037
a(I23
I1
tp4038
a(I59
I1
tp4039
a(I193
I1
tp4040
aa(lp4041
(I23
I1
tp4042
a(I59
I1
tp4043
a(I193
I1
tp4044
a(I207
I1
tp4045
aa(lp4046
(I13
I1
tp4047
a(I26
I1
tp4048
a(I36
I1
tp4049
a(I59
I1
tp4050
a(I191
I1
tp4051
a(I282
I1
tp4052
a(I761
I1
tp4053
a(I762
I1
tp4054
aa(lp4055
(I20
I1
tp4056
a(I105
I1
tp4057
a(I423
I1
tp4058
aa(lp4059
(I11
I1
tp4060
a(I497
I1
tp4061
a(I763
I1
tp4062
a(I764
I1
tp4063
aa(lp4064
(I4
I1
tp4065
a(I20
I1
tp4066
a(I497
I1
tp4067
aa(lp4068
(I20
I1
tp4069
a(I216
I1
tp4070
a(I388
I1
tp4071
a(I497
I1
tp4072
a(I765
I1
tp4073
aa(lp4074
(I2
I1
tp4075
a(I20
I1
tp4076
a(I289
I1
tp4077
a(I497
I1
tp4078
aa(lp4079
(I21
I1
tp4080
a(I521
I1
tp4081
a(I578
I1
tp4082
a(I616
I1
tp4083
aa(lp4084
(I4
I1
tp4085
a(I26
I1
tp4086
a(I43
I1
tp4087
a(I207
I1
tp4088
a(I675
I1
tp4089
a(I766
I1
tp4090
aa(lp4091
(I32
I1
tp4092
a(I36
I1
tp4093
aa(lp4094
(I709
I1
tp4095
a(I767
I1
tp4096
a(I768
I1
tp4097
aa(lp4098
(I0
I1
tp4099
a(I2
I1
tp4100
a(I184
I1
tp4101
a(I186
I1
tp4102
a(I648
I1
tp4103
aa(lp4104
(I34
I1
tp4105
a(I35
I1
tp4106
a(I101
I1
tp4107
a(I102
I1
tp4108
a(I755
I1
tp4109
aa(lp4110
(I0
I1
tp4111
a(I3
I1
tp4112
a(I34
I1
tp4113
a(I35
I1
tp4114
a(I274
I1
tp4115
a(I769
I1
tp4116
aa(lp4117
(I41
I1
tp4118
a(I59
I1
tp4119
a(I83
I1
tp4120
a(I105
I1
tp4121
a(I469
I1
tp4122
a(I770
I1
tp4123
aa(lp4124
(I20
I1
tp4125
a(I41
I1
tp4126
a(I59
I1
tp4127
a(I105
I1
tp4128
a(I469
I1
tp4129
a(I770
I1
tp4130
aa(lp4131
(I58
I1
tp4132
a(I59
I1
tp4133
a(I217
I1
tp4134
a(I344
I1
tp4135
aa(lp4136
(I58
I1
tp4137
a(I59
I1
tp4138
a(I217
I1
tp4139
a(I771
I1
tp4140
aa(lp4141
(I13
I1
tp4142
a(I60
I1
tp4143
a(I63
I1
tp4144
a(I193
I1
tp4145
a(I203
I1
tp4146
a(I759
I1
tp4147
aa(lp4148
(I59
I1
tp4149
a(I60
I1
tp4150
a(I63
I1
tp4151
a(I344
I1
tp4152
a(I772
I1
tp4153
a(I773
I1
tp4154
aa(lp4155
(I59
I1
tp4156
a(I60
I1
tp4157
a(I63
I1
tp4158
a(I344
I1
tp4159
a(I680
I1
tp4160
a(I773
I1
tp4161
aa(lp4162
(I20
I1
tp4163
a(I59
I1
tp4164
a(I62
I1
tp4165
a(I128
I1
tp4166
a(I193
I1
tp4167
aa(lp4168
(I13
I1
tp4169
a(I218
I1
tp4170
a(I464
I1
tp4171
a(I680
I1
tp4172
a(I759
I1
tp4173
aa(lp4174
(I59
I1
tp4175
a(I128
I1
tp4176
a(I193
I1
tp4177
a(I524
I1
tp4178
a(I774
I1
tp4179
aa(lp4180
(I41
I1
tp4181
a(I50
I1
tp4182
a(I59
I1
tp4183
a(I761
I1
tp4184
a(I762
I1
tp4185
aa(lp4186
(I59
I1
tp4187
a(I193
I1
tp4188
a(I207
I1
tp4189
a(I761
I1
tp4190
a(I762
I1
tp4191
aa(lp4192
(I13
I1
tp4193
a(I59
I1
tp4194
a(I282
I1
tp4195
a(I761
I1
tp4196
a(I762
I1
tp4197
a(I775
I1
tp4198
aa(lp4199
(I54
I1
tp4200
a(I488
I1
tp4201
a(I497
I1
tp4202
a(I776
I1
tp4203
aa(lp4204
(I13
I1
tp4205
a(I15
I1
tp4206
a(I74
I1
tp4207
a(I344
I1
tp4208
a(I464
I1
tp4209
a(I515
I1
tp4210
a(I777
I1
tp4211
aa(lp4212
(I315
I1
tp4213
a(I778
I1
tp4214
aa(lp4215
(I21
I1
tp4216
a(I216
I1
tp4217
a(I250
I1
tp4218
a(I259
I1
tp4219
a(I272
I1
tp4220
a(I292
I1
tp4221
a(I497
I1
tp4222
aa(lp4223
(I11
I1
tp4224
a(I20
I1
tp4225
a(I33
I1
tp4226
a(I40
I1
tp4227
a(I274
I1
tp4228
a(I289
I1
tp4229
aa(lp4230
(I2
I1
tp4231
a(I20
I1
tp4232
a(I153
I1
tp4233
a(I289
I1
tp4234
a(I739
I1
tp4235
a(I778
I1
tp4236
a(I779
I1
tp4237
a(I780
I1
tp4238
aa(lp4239
(I314
I1
tp4240
a(I316
I1
tp4241
a(I781
I1
tp4242
a(I782
I1
tp4243
aa(lp4244
(I11
I1
tp4245
a(I21
I1
tp4246
a(I298
I1
tp4247
aa(lp4248
(I11
I1
tp4249
a(I20
I1
tp4250
a(I33
I1
tp4251
a(I289
I1
tp4252
aa(lp4253
(I11
I1
tp4254
a(I20
I1
tp4255
a(I43
I1
tp4256
a(I266
I1
tp4257
a(I272
I1
tp4258
a(I282
I1
tp4259
a(I535
I1
tp4260
aa(lp4261
(I316
I1
tp4262
a(I521
I1
tp4263
a(I578
I1
tp4264
a(I616
I1
tp4265
aa(lp4266
(I13
I1
tp4267
a(I521
I1
tp4268
a(I578
I1
tp4269
a(I783
I1
tp4270
aa(lp4271
(I209
I1
tp4272
a(I521
I1
tp4273
a(I546
I1
tp4274
a(I576
I1
tp4275
a(I577
I1
tp4276
a(I578
I1
tp4277
a(I784
I1
tp4278
aa(lp4279
(I209
I1
tp4280
a(I216
I1
tp4281
a(I521
I1
tp4282
a(I578
I1
tp4283
a(I579
I1
tp4284
a(I580
I1
tp4285
a(I784
I1
tp4286
aa(lp4287
(I11
I1
tp4288
a(I50
I1
tp4289
a(I192
I1
tp4290
a(I785
I1
tp4291
aa(lp4292
(I11
I1
tp4293
a(I20
I1
tp4294
a(I105
I1
tp4295
aa(lp4296
(I15
I1
tp4297
a(I23
I1
tp4298
a(I36
I1
tp4299
aa(lp4300
(I59
I1
tp4301
a(I60
I1
tp4302
a(I61
I1
tp4303
a(I63
I1
tp4304
a(I217
I1
tp4305
aa(lp4306
(I13
I1
tp4307
a(I19
I1
tp4308
a(I21
I1
tp4309
a(I55
I1
tp4310
a(I59
I1
tp4311
a(I62
I1
tp4312
aa(lp4313
(I13
I1
tp4314
a(I19
I1
tp4315
a(I20
I1
tp4316
a(I55
I1
tp4317
a(I59
I1
tp4318
a(I62
I1
tp4319
aa(lp4320
(I13
I1
tp4321
a(I19
I1
tp4322
a(I23
I1
tp4323
a(I55
I1
tp4324
a(I59
I1
tp4325
a(I62
I1
tp4326
aa(lp4327
(I59
I1
tp4328
a(I60
I1
tp4329
a(I63
I1
tp4330
a(I203
I1
tp4331
a(I344
I1
tp4332
a(I773
I1
tp4333
aa(lp4334
(I59
I1
tp4335
a(I62
I1
tp4336
a(I193
I1
tp4337
a(I680
I1
tp4338
a(I759
I1
tp4339
aa(lp4340
(I2
I1
tp4341
a(I642
I1
tp4342
aa(lp4343
(I2
I1
tp4344
a(I69
I1
tp4345
a(I423
I1
tp4346
a(I654
I1
tp4347
aa(lp4348
(I50
I1
tp4349
a(I83
I1
tp4350
a(I344
I1
tp4351
a(I515
I1
tp4352
a(I777
I1
tp4353
aa(lp4354
(I23
I1
tp4355
a(I50
I1
tp4356
a(I344
I1
tp4357
a(I515
I1
tp4358
a(I777
I1
tp4359
aa(lp4360
(I193
I1
tp4361
a(I344
I1
tp4362
a(I515
I1
tp4363
a(I777
I1
tp4364
aa(lp4365
(I186
I1
tp4366
a(I344
I1
tp4367
a(I423
I1
tp4368
a(I515
I1
tp4369
a(I777
I1
tp4370
aa(lp4371
(I9
I1
tp4372
a(I54
I1
tp4373
a(I188
I1
tp4374
aa(lp4375
(I2
I1
tp4376
a(I403
I1
tp4377
a(I778
I1
tp4378
aa(lp4379
(I315
I1
tp4380
a(I541
I1
tp4381
aa(lp4382
(I273
I1
tp4383
a(I285
I1
tp4384
a(I315
I1
tp4385
a(I333
I1
tp4386
a(I403
I1
tp4387
a(I786
I1
tp4388
a(I787
I1
tp4389
aa(lp4390
(I13
I1
tp4391
a(I34
I1
tp4392
a(I35
I1
tp4393
a(I157
I1
tp4394
a(I344
I1
tp4395
a(I497
I1
tp4396
a(I515
I1
tp4397
a(I763
I1
tp4398
a(I764
I1
tp4399
a(I777
I1
tp4400
aa(lp4401
(I0
I1
tp4402
a(I13
I1
tp4403
a(I20
I1
tp4404
a(I216
I1
tp4405
a(I250
I1
tp4406
a(I497
I1
tp4407
a(I788
I1
tp4408
a(I789
I1
tp4409
aa(lp4410
(I23
I1
tp4411
a(I272
I1
tp4412
a(I292
I1
tp4413
a(I497
I1
tp4414
a(I790
I1
tp4415
aa(lp4416
(I2
I1
tp4417
a(I207
I1
tp4418
a(I654
I1
tp4419
a(I655
I1
tp4420
aa(lp4421
(I2
I1
tp4422
a(I274
I1
tp4423
a(I289
I1
tp4424
a(I423
I1
tp4425
a(I497
I1
tp4426
aa(lp4427
(I2
I1
tp4428
a(I20
I1
tp4429
a(I266
I1
tp4430
a(I289
I1
tp4431
a(I291
I1
tp4432
a(I298
I1
tp4433
aa(lp4434
(I21
I1
tp4435
a(I521
I1
tp4436
a(I578
I1
tp4437
a(I616
I1
tp4438
a(I791
I1
tp4439
aa(lp4440
(I11
I1
tp4441
a(I21
I1
tp4442
a(I216
I1
tp4443
a(I272
I1
tp4444
a(I292
I1
tp4445
a(I792
I1
tp4446
aa(lp4447
(I18
I1
tp4448
a(I21
I1
tp4449
a(I163
I1
tp4450
a(I167
I1
tp4451
a(I266
I1
tp4452
a(I298
I1
tp4453
a(I302
I1
tp4454
a(I321
I1
tp4455
a(I793
I1
tp4456
a(I794
I1
tp4457
aa(lp4458
(I2
I1
tp4459
a(I3
I1
tp4460
a(I223
I1
tp4461
a(I795
I1
tp4462
aa(lp4463
(I3
I1
tp4464
a(I4
I1
tp4465
a(I28
I1
tp4466
a(I204
I1
tp4467
a(I796
I1
tp4468
aa(lp4469
(I20
I1
tp4470
a(I41
I1
tp4471
a(I105
I1
tp4472
a(I760
I1
tp4473
aa(lp4474
(I21
I1
tp4475
a(I41
I1
tp4476
a(I105
I1
tp4477
a(I760
I1
tp4478
aa(lp4479
(I41
I1
tp4480
a(I105
I1
tp4481
a(I515
I1
tp4482
a(I760
I1
tp4483
a(I797
I1
tp4484
a(I798
I1
tp4485
aa(lp4486
(I23
I1
tp4487
a(I41
I1
tp4488
a(I105
I1
tp4489
a(I760
I1
tp4490
aa(lp4491
(I20
I1
tp4492
a(I33
I1
tp4493
a(I289
I1
tp4494
aa(lp4495
(I277
I1
tp4496
a(I293
I1
tp4497
a(I799
I1
tp4498
a(I800
I1
tp4499
a(I801
I2
tp4500
a(I802
I1
tp4501
a(I803
I1
tp4502
aa(lp4503
(I316
I1
tp4504
a(I521
I1
tp4505
a(I578
I1
tp4506
a(I804
I1
tp4507
a(I805
I1
tp4508
a(I806
I1
tp4509
aa(lp4510
(I11
I1
tp4511
a(I521
I1
tp4512
a(I544
I1
tp4513
a(I578
I1
tp4514
a(I616
I1
tp4515
a(I807
I1
tp4516
aa(lp4517
(I13
I1
tp4518
a(I228
I1
tp4519
a(I464
I1
tp4520
a(I546
I1
tp4521
aa(lp4522
(I50
I1
tp4523
a(I340
I1
tp4524
a(I808
I1
tp4525
aa(lp4526
(I20
I1
tp4527
a(I50
I1
tp4528
a(I340
I1
tp4529
aa(lp4530
(I21
I1
tp4531
a(I30
I1
tp4532
a(I50
I1
tp4533
a(I340
I2
tp4534
aa(lp4535
(I23
I1
tp4536
a(I41
I1
tp4537
a(I50
I1
tp4538
a(I59
I1
tp4539
aa(lp4540
(I23
I1
tp4541
a(I56
I1
tp4542
a(I186
I1
tp4543
a(I282
I1
tp4544
aa(lp4545
(I23
I1
tp4546
a(I33
I1
tp4547
a(I809
I1
tp4548
aa(lp4549
(I23
I1
tp4550
a(I33
I1
tp4551
a(I810
I1
tp4552
aa(lp4553
(I59
I1
tp4554
a(I105
I1
tp4555
a(I217
I1
tp4556
a(I344
I1
tp4557
aa(lp4558
(I21
I1
tp4559
a(I59
I1
tp4560
a(I62
I1
tp4561
a(I193
I1
tp4562
aa(lp4563
(I11
I1
tp4564
a(I21
I1
tp4565
a(I41
I1
tp4566
a(I50
I1
tp4567
a(I59
I1
tp4568
a(I62
I1
tp4569
aa(lp4570
(I11
I1
tp4571
a(I20
I1
tp4572
a(I41
I1
tp4573
a(I59
I1
tp4574
a(I62
I1
tp4575
a(I105
I1
tp4576
aa(lp4577
(I2
I1
tp4578
a(I64
I1
tp4579
a(I188
I1
tp4580
a(I654
I1
tp4581
a(I811
I1
tp4582
a(I812
I1
tp4583
aa(lp4584
(I13
I1
tp4585
a(I141
I1
tp4586
a(I344
I1
tp4587
a(I515
I1
tp4588
a(I777
I1
tp4589
aa(lp4590
(I23
I1
tp4591
a(I25
I1
tp4592
a(I50
I1
tp4593
a(I344
I1
tp4594
a(I515
I1
tp4595
a(I777
I1
tp4596
aa(lp4597
(I54
I1
tp4598
a(I59
I1
tp4599
a(I128
I1
tp4600
a(I193
I1
tp4601
aa(lp4602
(I13
I1
tp4603
a(I193
I1
tp4604
a(I344
I1
tp4605
a(I515
I1
tp4606
a(I777
I1
tp4607
aa(lp4608
(I0
I1
tp4609
a(I3
I1
tp4610
a(I776
I1
tp4611
a(I813
I1
tp4612
aa(lp4613
(I0
I1
tp4614
a(I15
I1
tp4615
a(I162
I1
tp4616
a(I776
I1
tp4617
a(I813
I1
tp4618
aa(lp4619
(I0
I1
tp4620
a(I3
I1
tp4621
a(I54
I1
tp4622
a(I488
I1
tp4623
a(I776
I1
tp4624
a(I813
I1
tp4625
a(I814
I1
tp4626
aa(lp4627
(I162
I1
tp4628
a(I216
I1
tp4629
a(I344
I1
tp4630
a(I645
I1
tp4631
a(I735
I1
tp4632
a(I752
I1
tp4633
a(I776
I1
tp4634
a(I789
I1
tp4635
a(I813
I1
tp4636
a(I815
I1
tp4637
a(I816
I1
tp4638
aa(lp4639
(I4
I1
tp4640
a(I11
I1
tp4641
a(I276
I1
tp4642
aa(lp4643
(I2
I1
tp4644
a(I67
I1
tp4645
a(I276
I1
tp4646
a(I456
I1
tp4647
a(I660
I1
tp4648
aa(lp4649
(I2
I1
tp4650
a(I11
I1
tp4651
a(I67
I1
tp4652
a(I276
I1
tp4653
a(I817
I1
tp4654
aa(lp4655
(I273
I1
tp4656
a(I275
I1
tp4657
a(I306
I1
tp4658
aa(lp4659
(I541
I1
tp4660
a(I818
I1
tp4661
a(I819
I1
tp4662
aa(lp4663
(I20
I1
tp4664
a(I41
I1
tp4665
a(I216
I1
tp4666
a(I372
I1
tp4667
a(I788
I1
tp4668
a(I789
I1
tp4669
aa(lp4670
(I0
I1
tp4671
a(I15
I1
tp4672
a(I54
I1
tp4673
a(I162
I1
tp4674
a(I488
I1
tp4675
a(I776
I1
tp4676
a(I820
I1
tp4677
aa(lp4678
(I0
I1
tp4679
a(I15
I1
tp4680
a(I54
I1
tp4681
a(I162
I1
tp4682
a(I488
I1
tp4683
a(I776
I1
tp4684
a(I820
I1
tp4685
aa(lp4686
(I0
I1
tp4687
a(I3
I1
tp4688
a(I54
I1
tp4689
a(I488
I1
tp4690
a(I776
I1
tp4691
a(I814
I1
tp4692
a(I820
I1
tp4693
aa(lp4694
(I0
I1
tp4695
a(I3
I1
tp4696
a(I54
I1
tp4697
a(I488
I1
tp4698
a(I776
I1
tp4699
a(I814
I1
tp4700
a(I820
I1
tp4701
aa(lp4702
(I13
I1
tp4703
a(I286
I1
tp4704
a(I292
I1
tp4705
a(I652
I1
tp4706
a(I763
I1
tp4707
a(I764
I1
tp4708
aa(lp4709
(I20
I1
tp4710
a(I67
I1
tp4711
aa(lp4712
(I2
I1
tp4713
a(I652
I1
tp4714
a(I655
I1
tp4715
a(I821
I1
tp4716
aa(lp4717
(I13
I1
tp4718
a(I20
I1
tp4719
a(I207
I1
tp4720
a(I654
I1
tp4721
a(I655
I1
tp4722
aa(lp4723
(I11
I1
tp4724
a(I20
I1
tp4725
a(I33
I1
tp4726
a(I40
I1
tp4727
a(I274
I1
tp4728
a(I289
I1
tp4729
a(I822
I1
tp4730
aa(lp4731
(I43
I1
tp4732
a(I292
I1
tp4733
a(I296
I1
tp4734
aa(lp4735
(I11
I1
tp4736
a(I23
I1
tp4737
a(I272
I1
tp4738
a(I292
I1
tp4739
a(I792
I1
tp4740
aa(lp4741
(I20
I1
tp4742
a(I50
I1
tp4743
a(I216
I1
tp4744
a(I515
I1
tp4745
a(I797
I1
tp4746
a(I798
I1
tp4747
aa(lp4748
(I50
I1
tp4749
a(I69
I1
tp4750
a(I216
I1
tp4751
a(I515
I1
tp4752
a(I797
I1
tp4753
a(I798
I1
tp4754
a(I823
I1
tp4755
a(I824
I1
tp4756
aa(lp4757
(I23
I1
tp4758
a(I193
I1
tp4759
a(I207
I1
tp4760
a(I760
I1
tp4761
aa(lp4762
(I20
I1
tp4763
a(I23
I1
tp4764
a(I50
I1
tp4765
a(I760
I1
tp4766
aa(lp4767
(I3
I1
tp4768
a(I21
I1
tp4769
a(I159
I1
tp4770
a(I223
I1
tp4771
aa(lp4772
(I3
I1
tp4773
a(I20
I1
tp4774
a(I159
I1
tp4775
a(I223
I1
tp4776
aa(lp4777
(I3
I1
tp4778
a(I23
I1
tp4779
a(I159
I1
tp4780
a(I223
I1
tp4781
aa(lp4782
(I3
I1
tp4783
a(I11
I1
tp4784
a(I13
I1
tp4785
a(I223
I1
tp4786
a(I505
I1
tp4787
a(I506
I1
tp4788
a(I507
I1
tp4789
a(I795
I1
tp4790
a(I825
I1
tp4791
aa(lp4792
(I521
I1
tp4793
a(I578
I1
tp4794
a(I616
I1
tp4795
a(I791
I1
tp4796
aa(lp4797
(I225
I1
tp4798
a(I521
I1
tp4799
a(I546
I1
tp4800
a(I577
I1
tp4801
a(I578
I1
tp4802
a(I616
I1
tp4803
aa(lp4804
(I20
I1
tp4805
a(I163
I1
tp4806
a(I164
I1
tp4807
a(I167
I1
tp4808
a(I340
I1
tp4809
a(I464
I1
tp4810
a(I545
I1
tp4811
a(I546
I1
tp4812
a(I826
I1
tp4813
aa(lp4814
(I19
I1
tp4815
a(I340
I1
tp4816
a(I808
I1
tp4817
a(I813
I1
tp4818
a(I827
I1
tp4819
aa(lp4820
(I19
I1
tp4821
a(I340
I1
tp4822
a(I515
I1
tp4823
a(I777
I1
tp4824
a(I808
I1
tp4825
a(I813
I1
tp4826
a(I828
I1
tp4827
aa(lp4828
(I13
I1
tp4829
a(I228
I1
tp4830
a(I294
I1
tp4831
a(I340
I1
tp4832
a(I354
I1
tp4833
a(I808
I1
tp4834
aa(lp4835
(I15
I1
tp4836
a(I20
I1
tp4837
a(I50
I1
tp4838
a(I153
I1
tp4839
a(I216
I1
tp4840
a(I340
I1
tp4841
a(I372
I1
tp4842
a(I808
I1
tp4843
a(I829
I1
tp4844
aa(lp4845
(I15
I1
tp4846
a(I21
I1
tp4847
a(I50
I1
tp4848
a(I153
I1
tp4849
a(I216
I1
tp4850
a(I340
I1
tp4851
a(I372
I1
tp4852
a(I808
I1
tp4853
a(I829
I1
tp4854
aa(lp4855
(I30
I1
tp4856
a(I41
I1
tp4857
a(I83
I1
tp4858
a(I105
I1
tp4859
a(I340
I1
tp4860
aa(lp4861
(I20
I1
tp4862
a(I30
I1
tp4863
a(I41
I1
tp4864
a(I105
I1
tp4865
a(I340
I1
tp4866
aa(lp4867
(I21
I1
tp4868
a(I30
I1
tp4869
a(I41
I1
tp4870
a(I105
I1
tp4871
a(I340
I1
tp4872
aa(lp4873
(I23
I1
tp4874
a(I603
I1
tp4875
a(I606
I1
tp4876
a(I830
I1
tp4877
aa(lp4878
(I23
I1
tp4879
a(I36
I1
tp4880
a(I831
I1
tp4881
a(I832
I1
tp4882
aa(lp4883
(I2
I1
tp4884
a(I13
I1
tp4885
a(I207
I1
tp4886
a(I654
I1
tp4887
a(I655
I1
tp4888
aa(lp4889
(I20
I1
tp4890
a(I41
I1
tp4891
a(I105
I1
tp4892
a(I216
I1
tp4893
a(I788
I1
tp4894
a(I789
I1
tp4895
aa(lp4896
(I0
I1
tp4897
a(I11
I1
tp4898
a(I15
I1
tp4899
a(I55
I1
tp4900
a(I344
I1
tp4901
a(I515
I1
tp4902
a(I833
I1
tp4903
a(I834
I1
tp4904
aa(lp4905
(I56
I1
tp4906
a(I64
I1
tp4907
a(I65
I1
tp4908
a(I344
I1
tp4909
a(I515
I1
tp4910
a(I777
I1
tp4911
a(I835
I1
tp4912
aa(lp4913
(I54
I1
tp4914
a(I193
I1
tp4915
a(I836
I1
tp4916
aa(lp4917
(I3
I1
tp4918
a(I20
I1
tp4919
a(I776
I1
tp4920
a(I837
I1
tp4921
aa(lp4922
(I3
I1
tp4923
a(I23
I1
tp4924
a(I776
I1
tp4925
a(I837
I1
tp4926
aa(lp4927
(I0
I1
tp4928
a(I15
I1
tp4929
a(I54
I1
tp4930
a(I162
I1
tp4931
a(I488
I1
tp4932
a(I776
I1
tp4933
a(I813
I1
tp4934
aa(lp4935
(I58
I1
tp4936
a(I162
I1
tp4937
a(I216
I1
tp4938
a(I344
I1
tp4939
a(I645
I1
tp4940
a(I735
I1
tp4941
a(I752
I1
tp4942
a(I776
I1
tp4943
a(I789
I1
tp4944
a(I815
I1
tp4945
a(I816
I1
tp4946
aa(lp4947
(I4
I1
tp4948
a(I19
I1
tp4949
a(I276
I1
tp4950
aa(lp4951
(I660
I1
tp4952
a(I838
I1
tp4953
a(I839
I1
tp4954
aa(lp4955
(I2
I1
tp4956
a(I18
I1
tp4957
a(I276
I1
tp4958
a(I285
I1
tp4959
a(I626
I1
tp4960
a(I660
I1
tp4961
a(I840
I1
tp4962
aa(lp4963
(I276
I1
tp4964
a(I419
I1
tp4965
a(I660
I1
tp4966
a(I679
I1
tp4967
a(I680
I1
tp4968
aa(lp4969
(I13
I1
tp4970
a(I66
I1
tp4971
a(I178
I1
tp4972
a(I276
I1
tp4973
a(I660
I1
tp4974
a(I698
I1
tp4975
aa(lp4976
(I4
I1
tp4977
a(I276
I1
tp4978
aa(lp4979
(I2
I1
tp4980
a(I11
I1
tp4981
a(I841
I1
tp4982
aa(lp4983
(I13
I1
tp4984
a(I66
I1
tp4985
a(I163
I1
tp4986
a(I178
I1
tp4987
a(I276
I1
tp4988
a(I842
I1
tp4989
aa(lp4990
(I2
I1
tp4991
a(I20
I1
tp4992
a(I216
I1
tp4993
a(I276
I1
tp4994
aa(lp4995
(I2
I1
tp4996
a(I21
I1
tp4997
a(I216
I1
tp4998
a(I276
I1
tp4999
aa(lp5000
(I2
I1
tp5001
a(I15
I1
tp5002
a(I69
I1
tp5003
a(I216
I1
tp5004
a(I276
I1
tp5005
aa(lp5006
(I2
I1
tp5007
a(I23
I1
tp5008
a(I216
I1
tp5009
a(I276
I1
tp5010
a(I817
I1
tp5011
aa(lp5012
(I11
I1
tp5013
a(I55
I1
tp5014
a(I273
I1
tp5015
a(I322
I1
tp5016
aa(lp5017
(I25
I1
tp5018
a(I273
I1
tp5019
a(I322
I1
tp5020
aa(lp5021
(I11
I1
tp5022
a(I41
I1
tp5023
a(I344
I1
tp5024
a(I372
I1
tp5025
a(I515
I1
tp5026
a(I777
I1
tp5027
aa(lp5028
(I0
I1
tp5029
a(I3
I1
tp5030
a(I54
I1
tp5031
a(I488
I1
tp5032
a(I776
I1
tp5033
a(I813
I1
tp5034
aa(lp5035
(I13
I1
tp5036
a(I20
I1
tp5037
a(I41
I1
tp5038
a(I843
I1
tp5039
a(I844
I1
tp5040
aa(lp5041
(I19
I1
tp5042
a(I292
I1
tp5043
a(I845
I1
tp5044
aa(lp5045
(I21
I1
tp5046
a(I43
I1
tp5047
a(I216
I1
tp5048
a(I292
I1
tp5049
a(I296
I1
tp5050
aa(lp5051
(I50
I1
tp5052
a(I83
I1
tp5053
a(I216
I1
tp5054
a(I515
I1
tp5055
a(I797
I1
tp5056
a(I798
I1
tp5057
aa(lp5058
(I3
I1
tp5059
a(I20
I1
tp5060
a(I159
I1
tp5061
a(I223
I1
tp5062
aa(lp5063
(I2
I1
tp5064
a(I223
I1
tp5065
a(I251
I1
tp5066
a(I795
I1
tp5067
aa(lp5068
(I3
I1
tp5069
a(I23
I1
tp5070
a(I159
I1
tp5071
a(I223
I1
tp5072
aa(lp5073
(I3
I1
tp5074
a(I13
I1
tp5075
a(I223
I1
tp5076
a(I795
I1
tp5077
a(I846
I1
tp5078
a(I847
I1
tp5079
aa(lp5080
(I3
I1
tp5081
a(I186
I1
tp5082
a(I251
I1
tp5083
a(I383
I1
tp5084
a(I511
I1
tp5085
aa(lp5086
(I3
I1
tp5087
a(I251
I1
tp5088
a(I511
I1
tp5089
a(I735
I1
tp5090
a(I848
I1
tp5091
a(I849
I1
tp5092
aa(lp5093
(I2
I1
tp5094
a(I3
I1
tp5095
a(I216
I1
tp5096
a(I223
I1
tp5097
a(I505
I1
tp5098
a(I506
I1
tp5099
a(I507
I1
tp5100
a(I738
I1
tp5101
aa(lp5102
(I19
I1
tp5103
a(I340
I1
tp5104
a(I808
I1
tp5105
a(I820
I1
tp5106
a(I827
I1
tp5107
aa(lp5108
(I153
I1
tp5109
a(I163
I1
tp5110
a(I164
I1
tp5111
a(I655
I1
tp5112
a(I813
I1
tp5113
a(I826
I1
tp5114
a(I850
I1
tp5115
a(I851
I1
tp5116
aa(lp5117
(I13
I1
tp5118
a(I157
I1
tp5119
a(I340
I1
tp5120
a(I515
I1
tp5121
a(I777
I1
tp5122
a(I808
I1
tp5123
a(I828
I1
tp5124
aa(lp5125
(I2
I1
tp5126
a(I30
I1
tp5127
a(I43
I1
tp5128
a(I654
I1
tp5129
aa(lp5130
(I9
I1
tp5131
a(I13
I1
tp5132
a(I188
I1
tp5133
a(I228
I1
tp5134
a(I852
I1
tp5135
aa(lp5136
(I23
I1
tp5137
a(I33
I1
tp5138
a(I40
I1
tp5139
a(I809
I1
tp5140
aa(lp5141
(I11
I1
tp5142
a(I23
I1
tp5143
a(I282
I1
tp5144
a(I297
I1
tp5145
a(I831
I1
tp5146
a(I832
I1
tp5147
aa(lp5148
(I9
I1
tp5149
a(I172
I1
tp5150
a(I188
I1
tp5151
a(I788
I1
tp5152
aa(lp5153
(I9
I1
tp5154
a(I188
I1
tp5155
a(I788
I1
tp5156
a(I853
I1
tp5157
aa(lp5158
(I9
I1
tp5159
a(I188
I1
tp5160
a(I788
I1
tp5161
a(I854
I1
tp5162
aa(lp5163
(I9
I1
tp5164
a(I188
I1
tp5165
a(I788
I1
tp5166
a(I855
I1
tp5167
aa(lp5168
(I9
I1
tp5169
a(I188
I1
tp5170
a(I419
I1
tp5171
a(I788
I1
tp5172
a(I853
I1
tp5173
aa(lp5174
(I0
I1
tp5175
a(I15
I1
tp5176
a(I20
I1
tp5177
a(I216
I1
tp5178
a(I344
I1
tp5179
a(I515
I1
tp5180
a(I833
I1
tp5181
a(I834
I1
tp5182
aa(lp5183
(I0
I1
tp5184
a(I15
I1
tp5185
a(I23
I1
tp5186
a(I216
I1
tp5187
a(I344
I1
tp5188
a(I515
I1
tp5189
a(I833
I1
tp5190
a(I834
I1
tp5191
aa(lp5192
(I19
I1
tp5193
a(I54
I1
tp5194
a(I59
I1
tp5195
aa(lp5196
(I3
I1
tp5197
a(I21
I1
tp5198
a(I776
I1
tp5199
a(I837
I1
tp5200
aa(lp5201
(I19
I1
tp5202
a(I23
I1
tp5203
a(I54
I1
tp5204
a(I59
I1
tp5205
a(I216
I1
tp5206
aa(lp5207
(I0
I1
tp5208
a(I54
I1
tp5209
a(I287
I1
tp5210
a(I488
I1
tp5211
a(I776
I1
tp5212
a(I813
I1
tp5213
aa(lp5214
(I13
I1
tp5215
a(I59
I1
tp5216
a(I184
I1
tp5217
a(I186
I1
tp5218
a(I344
I1
tp5219
a(I515
I1
tp5220
a(I777
I1
tp5221
aa(lp5222
(I41
I1
tp5223
a(I56
I1
tp5224
a(I186
I1
tp5225
a(I788
I1
tp5226
a(I789
I1
tp5227
aa(lp5228
(I4
I1
tp5229
a(I432
I1
tp5230
a(I839
I1
tp5231
a(I856
I1
tp5232
aa(lp5233
(I13
I1
tp5234
a(I276
I1
tp5235
a(I294
I1
tp5236
a(I354
I1
tp5237
a(I448
I1
tp5238
aa(lp5239
(I157
I1
tp5240
a(I276
I1
tp5241
a(I817
I1
tp5242
aa(lp5243
(I2
I1
tp5244
a(I16
I1
tp5245
a(I20
I1
tp5246
a(I216
I1
tp5247
a(I276
I1
tp5248
aa(lp5249
(I20
I1
tp5250
a(I663
I1
tp5251
a(I857
I1
tp5252
a(I858
I1
tp5253
aa(lp5254
(I3
I1
tp5255
a(I11
I1
tp5256
a(I20
I1
tp5257
a(I273
I1
tp5258
a(I306
I1
tp5259
aa(lp5260
(I11
I1
tp5261
a(I21
I1
tp5262
a(I272
I1
tp5263
a(I292
I1
tp5264
a(I532
I1
tp5265
a(I792
I1
tp5266
aa(lp5267
(I23
I1
tp5268
a(I292
I1
tp5269
a(I845
I1
tp5270
aa(lp5271
(I23
I1
tp5272
a(I43
I1
tp5273
a(I216
I1
tp5274
a(I292
I1
tp5275
a(I296
I1
tp5276
aa(lp5277
(I21
I1
tp5278
a(I272
I1
tp5279
a(I292
I1
tp5280
a(I497
I1
tp5281
a(I790
I1
tp5282
aa(lp5283
(I23
I1
tp5284
a(I272
I1
tp5285
a(I292
I1
tp5286
a(I497
I1
tp5287
a(I790
I1
tp5288
aa(lp5289
(I11
I1
tp5290
a(I28
I1
tp5291
a(I120
I1
tp5292
a(I125
I1
tp5293
a(I223
I1
tp5294
a(I251
I1
tp5295
aa(lp5296
(I2
I1
tp5297
a(I21
I1
tp5298
a(I28
I1
tp5299
a(I223
I1
tp5300
a(I251
I1
tp5301
aa(lp5302
(I2
I1
tp5303
a(I20
I1
tp5304
a(I28
I1
tp5305
a(I223
I1
tp5306
a(I251
I1
tp5307
aa(lp5308
(I2
I1
tp5309
a(I28
I1
tp5310
a(I148
I1
tp5311
a(I223
I1
tp5312
a(I251
I1
tp5313
aa(lp5314
(I3
I1
tp5315
a(I120
I1
tp5316
a(I423
I1
tp5317
aa(lp5318
(I15
I1
tp5319
a(I21
I1
tp5320
a(I50
I1
tp5321
a(I153
I1
tp5322
a(I340
I1
tp5323
a(I372
I1
tp5324
a(I808
I1
tp5325
a(I829
I1
tp5326
aa(lp5327
(I2
I1
tp5328
a(I64
I1
tp5329
a(I170
I1
tp5330
a(I285
I1
tp5331
a(I321
I1
tp5332
a(I340
I2
tp5333
a(I515
I1
tp5334
a(I808
I1
tp5335
a(I820
I1
tp5336
a(I827
I1
tp5337
a(I859
I1
tp5338
aa(lp5339
(I50
I1
tp5340
a(I164
I1
tp5341
a(I332
I1
tp5342
a(I340
I1
tp5343
a(I491
I1
tp5344
a(I808
I1
tp5345
a(I827
I1
tp5346
a(I860
I1
tp5347
a(I861
I1
tp5348
aa(lp5349
(I788
I1
tp5350
a(I789
I1
tp5351
aa(lp5352
(I23
I1
tp5353
a(I54
I1
tp5354
a(I282
I1
tp5355
aa(lp5356
(I0
I1
tp5357
a(I3
I1
tp5358
a(I11
I1
tp5359
a(I776
I1
tp5360
a(I813
I1
tp5361
aa(lp5362
(I50
I1
tp5363
a(I788
I1
tp5364
a(I789
I1
tp5365
aa(lp5366
(I13
I1
tp5367
a(I143
I1
tp5368
a(I788
I1
tp5369
a(I789
I1
tp5370
aa(lp5371
(I4
I1
tp5372
a(I178
I1
tp5373
a(I276
I1
tp5374
aa(lp5375
(I11
I1
tp5376
a(I16
I1
tp5377
a(I157
I1
tp5378
a(I276
I1
tp5379
a(I817
I1
tp5380
aa(lp5381
(I23
I1
tp5382
a(I663
I1
tp5383
aa(lp5384
(I2
I1
tp5385
a(I148
I1
tp5386
a(I223
I1
tp5387
a(I251
I1
tp5388
a(I795
I1
tp5389
aa(lp5390
(I2
I1
tp5391
a(I3
I1
tp5392
a(I13
I1
tp5393
a(I223
I1
tp5394
a(I423
I1
tp5395
a(I504
I1
tp5396
a(I508
I1
tp5397
aa(lp5398
(I3
I1
tp5399
a(I20
I1
tp5400
a(I159
I1
tp5401
a(I216
I1
tp5402
a(I223
I1
tp5403
aa(lp5404
(I2
I1
tp5405
a(I20
I1
tp5406
a(I28
I1
tp5407
a(I216
I1
tp5408
a(I223
I1
tp5409
a(I251
I1
tp5410
aa(lp5411
(I54
I1
tp5412
a(I423
I1
tp5413
a(I813
I1
tp5414
aa(lp5415
(I20
I1
tp5416
a(I41
I1
tp5417
a(I105
I1
tp5418
a(I788
I1
tp5419
a(I789
I1
tp5420
aa(lp5421
(I11
I1
tp5422
a(I13
I1
tp5423
a(I15
I1
tp5424
a(I55
I1
tp5425
a(I497
I1
tp5426
a(I763
I1
tp5427
a(I764
I1
tp5428
a(I833
I1
tp5429
aa(lp5430
(I11
I1
tp5431
a(I20
I1
tp5432
a(I45
I1
tp5433
a(I216
I1
tp5434
a(I277
I1
tp5435
a(I788
I1
tp5436
a(I789
I1
tp5437
aa(lp5438
(I3
I1
tp5439
a(I19
I1
tp5440
a(I23
I1
tp5441
a(I54
I1
tp5442
a(I216
I1
tp5443
aa(lp5444
(I41
I1
tp5445
a(I83
I1
tp5446
a(I105
I1
tp5447
a(I216
I1
tp5448
a(I788
I1
tp5449
a(I789
I1
tp5450
aa(lp5451
(I23
I1
tp5452
a(I33
I1
tp5453
a(I809
I1
tp5454
a(I862
I1
tp5455
aa(lp5456
(I23
I1
tp5457
a(I33
I1
tp5458
a(I810
I1
tp5459
a(I862
I1
tp5460
aa(lp5461
(I259
I1
tp5462
a(I344
I1
tp5463
a(I497
I1
tp5464
a(I515
I1
tp5465
a(I777
I1
tp5466
a(I833
I1
tp5467
aa(lp5468
(I54
I1
tp5469
a(I259
I1
tp5470
a(I497
I1
tp5471
a(I833
I1
tp5472
aa(lp5473
(I16
I1
tp5474
a(I65
I1
tp5475
a(I145
I1
tp5476
a(I707
I1
tp5477
aa(lp5478
(I2
I1
tp5479
a(I11
I1
tp5480
a(I67
I1
tp5481
a(I276
I1
tp5482
a(I660
I1
tp5483
aa(lp5484
(I4
I1
tp5485
a(I404
I1
tp5486
aa(lp5487
(I0
I1
tp5488
a(I13
I1
tp5489
a(I84
I1
tp5490
a(I121
I1
tp5491
a(I127
I1
tp5492
aa(lp5493
(I2
I1
tp5494
a(I34
I1
tp5495
a(I35
I1
tp5496
a(I74
I2
tp5497
a(I100
I1
tp5498
a(I101
I1
tp5499
a(I103
I1
tp5500
a(I754
I1
tp5501
a(I758
I1
tp5502
aa(lp5503
(I0
I1
tp5504
a(I2
I1
tp5505
a(I13
I1
tp5506
a(I648
I1
tp5507
a(I748
I1
tp5508
aa(lp5509
(I0
I2
tp5510
a(I43
I1
tp5511
a(I648
I1
tp5512
a(I749
I1
tp5513
aa(lp5514
(I101
I1
tp5515
a(I102
I1
tp5516
a(I755
I1
tp5517
aa(lp5518
(I0
I2
tp5519
a(I56
I1
tp5520
a(I648
I1
tp5521
a(I672
I1
tp5522
a(I863
I1
tp5523
a(I864
I1
tp5524
aa(lp5525
(I4
I1
tp5526
a(I431
I1
tp5527
a(I865
I1
tp5528
aa(lp5529
(I4
I1
tp5530
a(I69
I1
tp5531
a(I866
I1
tp5532
aa(lp5533
(I3
I1
tp5534
a(I4
I1
tp5535
a(I105
I1
tp5536
a(I114
I1
tp5537
aa(lp5538
(I4
I1
tp5539
a(I67
I1
tp5540
a(I188
I1
tp5541
a(I367
I1
tp5542
a(I484
I1
tp5543
aa(lp5544
(I67
I1
tp5545
a(I110
I1
tp5546
a(I367
I1
tp5547
a(I667
I1
tp5548
a(I867
I1
tp5549
aa(lp5550
(I4
I1
tp5551
a(I41
I1
tp5552
a(I43
I1
tp5553
a(I75
I1
tp5554
a(I209
I1
tp5555
aa(lp5556
(I4
I1
tp5557
a(I29
I1
tp5558
a(I41
I1
tp5559
a(I43
I1
tp5560
a(I75
I1
tp5561
aa(lp5562
(I4
I1
tp5563
a(I24
I1
tp5564
a(I29
I1
tp5565
a(I487
I1
tp5566
aa(lp5567
(I41
I1
tp5568
a(I85
I1
tp5569
a(I105
I1
tp5570
a(I148
I1
tp5571
a(I183
I1
tp5572
a(I623
I1
tp5573
a(I624
I1
tp5574
aa(lp5575
(I85
I1
tp5576
a(I97
I1
tp5577
a(I128
I1
tp5578
a(I183
I1
tp5579
a(I223
I1
tp5580
a(I623
I1
tp5581
a(I624
I1
tp5582
aa(lp5583
(I13
I1
tp5584
a(I85
I1
tp5585
a(I128
I1
tp5586
a(I183
I1
tp5587
a(I223
I1
tp5588
a(I489
I1
tp5589
a(I623
I1
tp5590
a(I624
I1
tp5591
a(I868
I1
tp5592
aa(lp5593
(I71
I1
tp5594
a(I75
I1
tp5595
a(I95
I1
tp5596
aa(lp5597
(I2
I1
tp5598
a(I13
I1
tp5599
a(I143
I1
tp5600
a(I464
I1
tp5601
aa(lp5602
(I2
I1
tp5603
a(I8
I1
tp5604
a(I128
I1
tp5605
a(I133
I1
tp5606
a(I145
I1
tp5607
aa(lp5608
(I4
I1
tp5609
a(I404
I1
tp5610
a(I869
I1
tp5611
aa(lp5612
(I4
I1
tp5613
a(I61
I1
tp5614
a(I404
I1
tp5615
a(I870
I1
tp5616
aa(lp5617
(I4
I1
tp5618
a(I537
I1
tp5619
a(I866
I1
tp5620
aa(lp5621
(I4
I1
tp5622
a(I866
I1
tp5623
a(I871
I1
tp5624
aa(lp5625
(I4
I1
tp5626
a(I51
I1
tp5627
a(I89
I1
tp5628
a(I715
I1
tp5629
aa(lp5630
(I4
I1
tp5631
a(I105
I1
tp5632
a(I367
I1
tp5633
a(I626
I1
tp5634
aa(lp5635
(I3
I1
tp5636
a(I4
I1
tp5637
a(I872
I1
tp5638
a(I873
I1
tp5639
a(I874
I1
tp5640
aa(lp5641
(I3
I1
tp5642
a(I875
I1
tp5643
aa(lp5644
(I4
I1
tp5645
a(I11
I1
tp5646
a(I105
I1
tp5647
aa(lp5648
(I4
I1
tp5649
a(I91
I1
tp5650
a(I105
I1
tp5651
a(I513
I1
tp5652
aa(lp5653
(I24
I1
tp5654
a(I29
I1
tp5655
a(I75
I1
tp5656
a(I90
I1
tp5657
a(I216
I1
tp5658
a(I369
I1
tp5659
a(I487
I1
tp5660
a(I811
I1
tp5661
aa(lp5662
(I41
I1
tp5663
a(I50
I1
tp5664
a(I83
I1
tp5665
a(I85
I1
tp5666
a(I624
I1
tp5667
aa(lp5668
(I20
I1
tp5669
a(I41
I1
tp5670
a(I50
I1
tp5671
a(I85
I1
tp5672
a(I624
I1
tp5673
aa(lp5674
(I21
I1
tp5675
a(I41
I1
tp5676
a(I50
I1
tp5677
a(I85
I1
tp5678
a(I624
I1
tp5679
aa(lp5680
(I23
I1
tp5681
a(I41
I1
tp5682
a(I50
I1
tp5683
a(I85
I1
tp5684
a(I624
I1
tp5685
aa(lp5686
(I71
I1
tp5687
a(I75
I1
tp5688
a(I83
I1
tp5689
a(I95
I1
tp5690
a(I216
I1
tp5691
aa(lp5692
(I21
I1
tp5693
a(I71
I1
tp5694
a(I75
I1
tp5695
a(I95
I1
tp5696
a(I216
I1
tp5697
aa(lp5698
(I20
I1
tp5699
a(I71
I1
tp5700
a(I75
I1
tp5701
a(I95
I1
tp5702
a(I216
I1
tp5703
aa(lp5704
(I23
I1
tp5705
a(I71
I1
tp5706
a(I75
I1
tp5707
a(I95
I1
tp5708
a(I216
I1
tp5709
aa(lp5710
(I3
I1
tp5711
a(I11
I1
tp5712
a(I20
I1
tp5713
a(I837
I1
tp5714
a(I876
I1
tp5715
aa(lp5716
(I3
I1
tp5717
a(I11
I1
tp5718
a(I21
I1
tp5719
a(I837
I1
tp5720
a(I876
I1
tp5721
aa(lp5722
(I219
I1
tp5723
a(I404
I1
tp5724
a(I877
I1
tp5725
aa(lp5726
(I404
I1
tp5727
a(I603
I1
tp5728
a(I877
I1
tp5729
a(I878
I1
tp5730
aa(lp5731
(I404
I1
tp5732
a(I603
I1
tp5733
a(I877
I1
tp5734
a(I879
I1
tp5735
aa(lp5736
(I404
I1
tp5737
a(I877
I1
tp5738
a(I880
I1
tp5739
a(I881
I1
tp5740
aa(lp5741
(I671
I1
tp5742
a(I882
I1
tp5743
a(I883
I1
tp5744
aa(lp5745
(I2
I1
tp5746
a(I51
I1
tp5747
a(I89
I1
tp5748
a(I715
I1
tp5749
aa(lp5750
(I4
I1
tp5751
a(I884
I1
tp5752
aa(lp5753
(I4
I1
tp5754
a(I67
I1
tp5755
a(I419
I1
tp5756
aa(lp5757
(I4
I1
tp5758
a(I23
I1
tp5759
a(I105
I1
tp5760
aa(lp5761
(I4
I1
tp5762
a(I773
I1
tp5763
a(I885
I1
tp5764
a(I886
I1
tp5765
aa(lp5766
(I20
I1
tp5767
a(I55
I1
tp5768
a(I85
I1
tp5769
a(I623
I1
tp5770
a(I624
I1
tp5771
aa(lp5772
(I21
I1
tp5773
a(I55
I1
tp5774
a(I85
I1
tp5775
a(I623
I1
tp5776
a(I624
I1
tp5777
aa(lp5778
(I23
I1
tp5779
a(I55
I1
tp5780
a(I85
I1
tp5781
a(I623
I1
tp5782
a(I624
I1
tp5783
aa(lp5784
(I9
I1
tp5785
a(I188
I1
tp5786
a(I887
I1
tp5787
aa(lp5788
(I83
I1
tp5789
a(I84
I1
tp5790
a(I88
I1
tp5791
a(I286
I1
tp5792
a(I379
I1
tp5793
a(I430
I1
tp5794
a(I888
I1
tp5795
a(I889
I1
tp5796
a(I890
I1
tp5797
aa(lp5798
(I13
I1
tp5799
a(I62
I1
tp5800
a(I77
I1
tp5801
a(I82
I1
tp5802
a(I177
I1
tp5803
a(I274
I1
tp5804
a(I287
I1
tp5805
a(I891
I1
tp5806
a(I892
I1
tp5807
a(I893
I1
tp5808
aa(lp5809
(I23
I1
tp5810
a(I70
I1
tp5811
aa(lp5812
(I13
I1
tp5813
a(I84
I1
tp5814
a(I127
I1
tp5815
a(I128
I1
tp5816
a(I133
I1
tp5817
a(I190
I1
tp5818
aa(lp5819
(I3
I1
tp5820
a(I20
I1
tp5821
a(I137
I1
tp5822
a(I223
I1
tp5823
aa(lp5824
(I2
I1
tp5825
a(I51
I1
tp5826
a(I715
I1
tp5827
aa(lp5828
(I4
I1
tp5829
a(I51
I1
tp5830
a(I715
I1
tp5831
aa(lp5832
(I21
I1
tp5833
a(I55
I1
tp5834
a(I85
I1
tp5835
a(I216
I1
tp5836
a(I624
I1
tp5837
aa(lp5838
(I23
I1
tp5839
a(I55
I1
tp5840
a(I85
I1
tp5841
a(I216
I1
tp5842
a(I624
I1
tp5843
aa(lp5844
(I61
I1
tp5845
a(I85
I1
tp5846
a(I183
I1
tp5847
a(I223
I1
tp5848
a(I623
I1
tp5849
a(I624
I1
tp5850
aa(lp5851
(I15
I1
tp5852
a(I64
I1
tp5853
a(I85
I1
tp5854
a(I132
I1
tp5855
a(I143
I1
tp5856
aa(lp5857
(I20
I1
tp5858
a(I62
I1
tp5859
a(I216
I1
tp5860
a(I772
I1
tp5861
a(I891
I1
tp5862
a(I892
I1
tp5863
aa(lp5864
(I21
I1
tp5865
a(I62
I1
tp5866
a(I216
I1
tp5867
a(I772
I1
tp5868
a(I891
I1
tp5869
a(I892
I1
tp5870
aa(lp5871
(I19
I1
tp5872
a(I23
I1
tp5873
a(I55
I1
tp5874
a(I62
I1
tp5875
a(I89
I1
tp5876
aa(lp5877
(I70
I1
tp5878
a(I541
I1
tp5879
a(I894
I1
tp5880
aa(lp5881
(I3
I1
tp5882
a(I21
I1
tp5883
a(I137
I1
tp5884
aa(lp5885
(I89
I1
tp5886
a(I653
I1
tp5887
a(I715
I1
tp5888
aa(lp5889
(I41
I1
tp5890
a(I62
I1
tp5891
a(I89
I1
tp5892
a(I105
I1
tp5893
a(I892
I1
tp5894
aa(lp5895
(I62
I1
tp5896
a(I89
I1
tp5897
a(I892
I1
tp5898
aa(lp5899
(I23
I1
tp5900
a(I62
I1
tp5901
a(I89
I1
tp5902
a(I193
I1
tp5903
aa(lp5904
(I3
I1
tp5905
a(I20
I1
tp5906
a(I137
I1
tp5907
aa(lp5908
(I13
I1
tp5909
a(I62
I1
tp5910
a(I82
I1
tp5911
a(I89
I1
tp5912
a(I177
I1
tp5913
a(I274
I1
tp5914
a(I287
I1
tp5915
a(I891
I1
tp5916
a(I892
I1
tp5917
a(I893
I1
tp5918
aa(lp5919
(I4
I1
tp5920
a(I25
I1
tp5921
a(I111
I1
tp5922
a(I658
I1
tp5923
aa(lp5924
(I25
I1
tp5925
a(I111
I1
tp5926
a(I515
I1
tp5927
a(I555
I1
tp5928
a(I895
I1
tp5929
aa(lp5930
(I32
I1
tp5931
a(I111
I1
tp5932
a(I112
I1
tp5933
aa(lp5934
(I25
I1
tp5935
a(I111
I1
tp5936
a(I259
I1
tp5937
a(I603
I1
tp5938
a(I896
I1
tp5939
a(I897
I1
tp5940
aa(lp5941
(I29
I1
tp5942
a(I59
I1
tp5943
a(I487
I1
tp5944
aa(lp5945
(I29
I1
tp5946
a(I42
I1
tp5947
a(I487
I1
tp5948
aa(lp5949
(I29
I1
tp5950
a(I379
I1
tp5951
a(I487
I1
tp5952
aa(lp5953
(I13
I1
tp5954
a(I36
I1
tp5955
a(I515
I1
tp5956
a(I555
I1
tp5957
a(I895
I1
tp5958
aa(lp5959
(I26
I1
tp5960
a(I32
I1
tp5961
a(I33
I1
tp5962
a(I36
I1
tp5963
aa(lp5964
(I13
I1
tp5965
a(I41
I1
tp5966
a(I259
I1
tp5967
a(I567
I1
tp5968
a(I603
I1
tp5969
a(I896
I1
tp5970
a(I897
I1
tp5971
aa(lp5972
(I41
I1
tp5973
a(I515
I1
tp5974
a(I555
I1
tp5975
a(I567
I1
tp5976
a(I895
I1
tp5977
aa(lp5978
(I2
I1
tp5979
a(I13
I1
tp5980
a(I41
I1
tp5981
a(I252
I1
tp5982
a(I285
I1
tp5983
a(I354
I1
tp5984
a(I492
I1
tp5985
a(I496
I1
tp5986
a(I499
I1
tp5987
a(I898
I1
tp5988
a(I899
I1
tp5989
aa(lp5990
(I19
I1
tp5991
a(I21
I1
tp5992
a(I59
I1
tp5993
a(I498
I1
tp5994
aa(lp5995
(I15
I1
tp5996
a(I20
I1
tp5997
a(I513
I1
tp5998
a(I889
I1
tp5999
a(I900
I1
tp6000
a(I901
I1
tp6001
aa(lp6002
(I2
I1
tp6003
a(I3
I1
tp6004
a(I23
I1
tp6005
a(I153
I1
tp6006
a(I157
I1
tp6007
a(I170
I1
tp6008
a(I207
I1
tp6009
a(I526
I1
tp6010
a(I527
I1
tp6011
a(I538
I1
tp6012
aa(lp6013
(I3
I1
tp6014
a(I23
I1
tp6015
a(I24
I1
tp6016
a(I377
I1
tp6017
a(I897
I1
tp6018
a(I902
I1
tp6019
aa(lp6020
(I0
I1
tp6021
a(I423
I1
tp6022
a(I627
I1
tp6023
a(I900
I1
tp6024
aa(lp6025
(I29
I1
tp6026
a(I195
I1
tp6027
a(I377
I1
tp6028
a(I738
I1
tp6029
a(I897
I1
tp6030
a(I902
I1
tp6031
aa(lp6032
(I536
I1
tp6033
a(I709
I1
tp6034
aa(lp6035
(I29
I1
tp6036
a(I255
I1
tp6037
a(I377
I1
tp6038
a(I897
I1
tp6039
a(I902
I1
tp6040
aa(lp6041
(I29
I1
tp6042
a(I255
I1
tp6043
a(I515
I1
tp6044
a(I903
I1
tp6045
a(I904
I1
tp6046
aa(lp6047
(I29
I1
tp6048
a(I182
I1
tp6049
a(I255
I1
tp6050
a(I717
I1
tp6051
aa(lp6052
(I29
I1
tp6053
a(I255
I1
tp6054
a(I905
I1
tp6055
a(I906
I1
tp6056
aa(lp6057
(I23
I1
tp6058
a(I29
I1
tp6059
a(I195
I1
tp6060
a(I216
I1
tp6061
a(I377
I1
tp6062
a(I738
I1
tp6063
a(I897
I1
tp6064
a(I902
I1
tp6065
aa(lp6066
(I20
I1
tp6067
a(I29
I1
tp6068
a(I195
I1
tp6069
a(I216
I1
tp6070
a(I377
I1
tp6071
a(I738
I1
tp6072
a(I897
I1
tp6073
a(I902
I1
tp6074
aa(lp6075
(I21
I1
tp6076
a(I29
I1
tp6077
a(I195
I1
tp6078
a(I216
I1
tp6079
a(I377
I1
tp6080
a(I738
I1
tp6081
a(I897
I1
tp6082
a(I902
I1
tp6083
aa(lp6084
(I15
I1
tp6085
a(I29
I1
tp6086
a(I69
I1
tp6087
a(I195
I1
tp6088
a(I216
I1
tp6089
a(I377
I1
tp6090
a(I738
I1
tp6091
a(I897
I1
tp6092
a(I902
I1
tp6093
aa(lp6094
(I182
I1
tp6095
a(I377
I1
tp6096
a(I897
I1
tp6097
a(I902
I1
tp6098
aa(lp6099
(I195
I1
tp6100
a(I377
I1
tp6101
a(I451
I1
tp6102
a(I738
I1
tp6103
a(I897
I1
tp6104
a(I902
I1
tp6105
aa(lp6106
(I21
I1
tp6107
a(I29
I1
tp6108
a(I182
I1
tp6109
a(I216
I1
tp6110
a(I255
I1
tp6111
a(I515
I1
tp6112
a(I903
I1
tp6113
a(I904
I1
tp6114
aa(lp6115
(I20
I1
tp6116
a(I29
I1
tp6117
a(I182
I1
tp6118
a(I216
I1
tp6119
a(I255
I1
tp6120
a(I515
I1
tp6121
a(I903
I1
tp6122
a(I904
I1
tp6123
aa(lp6124
(I23
I1
tp6125
a(I29
I1
tp6126
a(I182
I1
tp6127
a(I216
I1
tp6128
a(I255
I1
tp6129
a(I515
I1
tp6130
a(I903
I1
tp6131
a(I904
I1
tp6132
aa(lp6133
(I36
I1
tp6134
a(I907
I1
tp6135
a(I908
I1
tp6136
aa(lp6137
(I53
I1
tp6138
a(I182
I1
tp6139
a(I909
I1
tp6140
aa(lp6141
(I29
I1
tp6142
a(I255
I1
tp6143
a(I367
I1
tp6144
a(I667
I1
tp6145
a(I867
I1
tp6146
a(I905
I1
tp6147
aa(lp6148
(I29
I1
tp6149
a(I97
I1
tp6150
a(I255
I1
tp6151
a(I905
I1
tp6152
a(I910
I1
tp6153
aa(lp6154
(I29
I1
tp6155
a(I182
I1
tp6156
a(I255
I1
tp6157
a(I377
I1
tp6158
a(I897
I1
tp6159
a(I902
I1
tp6160
aa(lp6161
(I105
I1
tp6162
a(I182
I1
tp6163
a(I192
I1
tp6164
aa(lp6165
(I105
I1
tp6166
a(I911
I1
tp6167
aa(lp6168
(I287
I1
tp6169
a(I912
I1
tp6170
a(I913
I1
tp6171
aa(lp6172
(I3
I1
tp6173
a(I69
I1
tp6174
a(I914
I1
tp6175
a(I915
I1
tp6176
aa(lp6177
(I381
I1
tp6178
a(I916
I2
tp6179
a(I917
I1
tp6180
aa(lp6181
(I170
I1
tp6182
a(I234
I1
tp6183
a(I515
I1
tp6184
a(I903
I1
tp6185
a(I904
I1
tp6186
aa(lp6187
(I21
I1
tp6188
a(I29
I1
tp6189
a(I195
I1
tp6190
a(I216
I1
tp6191
a(I515
I1
tp6192
a(I738
I1
tp6193
a(I903
I1
tp6194
a(I904
I1
tp6195
aa(lp6196
(I105
I1
tp6197
a(I209
I1
tp6198
a(I907
I1
tp6199
a(I908
I1
tp6200
aa(lp6201
(I182
I1
tp6202
a(I918
I1
tp6203
a(I919
I1
tp6204
aa(lp6205
(I3
I1
tp6206
a(I120
I1
tp6207
a(I182
I1
tp6208
a(I920
I1
tp6209
aa(lp6210
(I3
I1
tp6211
a(I182
I1
tp6212
a(I920
I1
tp6213
a(I921
I1
tp6214
aa(lp6215
(I53
I1
tp6216
a(I909
I1
tp6217
a(I922
I1
tp6218
aa(lp6219
(I21
I1
tp6220
a(I29
I1
tp6221
a(I182
I1
tp6222
a(I216
I1
tp6223
a(I255
I1
tp6224
a(I377
I1
tp6225
a(I897
I1
tp6226
a(I902
I1
tp6227
aa(lp6228
(I20
I1
tp6229
a(I29
I1
tp6230
a(I182
I1
tp6231
a(I216
I1
tp6232
a(I255
I1
tp6233
a(I377
I1
tp6234
a(I897
I1
tp6235
a(I902
I1
tp6236
aa(lp6237
(I23
I1
tp6238
a(I29
I1
tp6239
a(I182
I1
tp6240
a(I216
I1
tp6241
a(I255
I1
tp6242
a(I377
I1
tp6243
a(I897
I1
tp6244
a(I902
I1
tp6245
aa(lp6246
(I23
I1
tp6247
a(I105
I1
tp6248
a(I182
I1
tp6249
aa(lp6250
(I105
I1
tp6251
a(I182
I1
tp6252
a(I192
I1
tp6253
a(I513
I1
tp6254
aa(lp6255
(I105
I1
tp6256
a(I182
I1
tp6257
a(I216
I1
tp6258
a(I748
I1
tp6259
a(I923
I1
tp6260
a(I924
I1
tp6261
a(I925
I1
tp6262
a(I926
I1
tp6263
a(I927
I1
tp6264
aa(lp6265
(I3
I1
tp6266
a(I182
I1
tp6267
a(I920
I1
tp6268
a(I921
I1
tp6269
aa(lp6270
(I3
I1
tp6271
a(I170
I1
tp6272
a(I515
I1
tp6273
a(I903
I1
tp6274
a(I904
I1
tp6275
aa(lp6276
(I55
I1
tp6277
a(I59
I1
tp6278
a(I515
I1
tp6279
a(I903
I1
tp6280
a(I904
I1
tp6281
a(I928
I1
tp6282
aa(lp6283
(I55
I1
tp6284
a(I182
I1
tp6285
a(I469
I1
tp6286
a(I929
I1
tp6287
a(I930
I1
tp6288
aa(lp6289
(I19
I1
tp6290
a(I105
I1
tp6291
a(I515
I1
tp6292
a(I927
I1
tp6293
a(I931
I1
tp6294
aa(lp6295
(I19
I1
tp6296
a(I55
I1
tp6297
a(I515
I1
tp6298
a(I927
I1
tp6299
a(I932
I1
tp6300
aa(lp6301
(I13
I1
tp6302
a(I67
I1
tp6303
a(I182
I1
tp6304
a(I419
I1
tp6305
a(I924
I1
tp6306
aa(lp6307
(I3
I1
tp6308
a(I21
I1
tp6309
a(I170
I1
tp6310
a(I216
I1
tp6311
a(I515
I1
tp6312
a(I903
I1
tp6313
a(I904
I1
tp6314
aa(lp6315
(I3
I1
tp6316
a(I20
I1
tp6317
a(I170
I1
tp6318
a(I216
I1
tp6319
a(I515
I1
tp6320
a(I903
I1
tp6321
a(I904
I1
tp6322
aa(lp6323
(I3
I1
tp6324
a(I23
I1
tp6325
a(I170
I1
tp6326
a(I216
I1
tp6327
a(I515
I1
tp6328
a(I903
I1
tp6329
a(I904
I1
tp6330
aa(lp6331
(I19
I1
tp6332
a(I20
I1
tp6333
a(I59
I1
tp6334
a(I216
I1
tp6335
a(I515
I1
tp6336
a(I903
I1
tp6337
a(I904
I1
tp6338
a(I928
I1
tp6339
aa(lp6340
(I19
I1
tp6341
a(I23
I1
tp6342
a(I59
I1
tp6343
a(I216
I1
tp6344
a(I515
I1
tp6345
a(I903
I1
tp6346
a(I904
I1
tp6347
a(I928
I1
tp6348
aa(lp6349
(I59
I1
tp6350
a(I60
I1
tp6351
a(I61
I1
tp6352
a(I63
I1
tp6353
a(I515
I1
tp6354
a(I903
I1
tp6355
a(I904
I1
tp6356
aa(lp6357
(I13
I1
tp6358
a(I191
I1
tp6359
a(I377
I1
tp6360
a(I897
I1
tp6361
a(I902
I1
tp6362
a(I933
I1
tp6363
aa(lp6364
(I19
I1
tp6365
a(I934
I1
tp6366
aa(lp6367
(I13
I1
tp6368
a(I191
I1
tp6369
a(I515
I1
tp6370
a(I903
I1
tp6371
a(I904
I1
tp6372
a(I933
I1
tp6373
aa(lp6374
(I19
I1
tp6375
a(I23
I1
tp6376
a(I105
I1
tp6377
a(I515
I1
tp6378
a(I927
I1
tp6379
a(I931
I1
tp6380
aa(lp6381
(I97
I1
tp6382
a(I293
I1
tp6383
a(I927
I1
tp6384
a(I932
I1
tp6385
a(I935
I1
tp6386
aa(lp6387
(I19
I1
tp6388
a(I29
I1
tp6389
a(I515
I1
tp6390
a(I927
I1
tp6391
a(I932
I1
tp6392
aa(lp6393
(I59
I1
tp6394
a(I60
I1
tp6395
a(I61
I1
tp6396
a(I63
I1
tp6397
a(I889
I1
tp6398
aa(lp6399
(I34
I1
tp6400
a(I35
I1
tp6401
a(I60
I1
tp6402
a(I61
I1
tp6403
a(I63
I1
tp6404
a(I515
I1
tp6405
a(I903
I1
tp6406
a(I904
I1
tp6407
a(I936
I1
tp6408
a(I937
I1
tp6409
aa(lp6410
(I65
I1
tp6411
a(I377
I1
tp6412
a(I897
I1
tp6413
a(I902
I1
tp6414
a(I938
I1
tp6415
a(I939
I1
tp6416
aa(lp6417
(I19
I1
tp6418
a(I20
I1
tp6419
a(I55
I1
tp6420
a(I216
I1
tp6421
a(I934
I1
tp6422
aa(lp6423
(I19
I1
tp6424
a(I59
I1
tp6425
a(I515
I1
tp6426
a(I903
I1
tp6427
a(I904
I1
tp6428
a(I928
I1
tp6429
aa(lp6430
(I0
I1
tp6431
a(I174
I1
tp6432
a(I191
I1
tp6433
a(I282
I1
tp6434
a(I515
I1
tp6435
a(I903
I1
tp6436
a(I904
I1
tp6437
aa(lp6438
(I11
I1
tp6439
a(I515
I1
tp6440
a(I927
I1
tp6441
a(I931
I1
tp6442
a(I940
I1
tp6443
a(I941
I1
tp6444
aa(lp6445
(I20
I1
tp6446
a(I29
I1
tp6447
a(I195
I1
tp6448
a(I216
I1
tp6449
a(I515
I1
tp6450
a(I738
I1
tp6451
a(I903
I1
tp6452
a(I904
I1
tp6453
aa(lp6454
(I15
I1
tp6455
a(I29
I1
tp6456
a(I69
I1
tp6457
a(I195
I1
tp6458
a(I216
I1
tp6459
a(I515
I1
tp6460
a(I738
I1
tp6461
a(I903
I1
tp6462
a(I904
I1
tp6463
aa(lp6464
(I23
I1
tp6465
a(I29
I1
tp6466
a(I195
I1
tp6467
a(I216
I1
tp6468
a(I515
I1
tp6469
a(I738
I1
tp6470
a(I903
I1
tp6471
a(I904
I1
tp6472
aa(lp6473
(I56
I1
tp6474
a(I65
I1
tp6475
a(I159
I1
tp6476
a(I178
I1
tp6477
a(I282
I1
tp6478
a(I377
I1
tp6479
a(I897
I1
tp6480
a(I902
I1
tp6481
a(I939
I1
tp6482
aa(lp6483
(I170
I1
tp6484
a(I515
I1
tp6485
a(I903
I1
tp6486
a(I904
I1
tp6487
a(I942
I1
tp6488
aa(lp6489
(I216
I1
tp6490
a(I378
I1
tp6491
a(I515
I1
tp6492
a(I943
I1
tp6493
a(I944
I1
tp6494
aa(lp6495
(I11
I1
tp6496
a(I13
I1
tp6497
a(I191
I1
tp6498
a(I515
I1
tp6499
a(I927
I1
tp6500
a(I931
I1
tp6501
a(I940
I1
tp6502
a(I945
I1
tp6503
aa(lp6504
(I34
I1
tp6505
a(I35
I1
tp6506
a(I56
I1
tp6507
a(I105
I1
tp6508
a(I515
I1
tp6509
a(I927
I1
tp6510
a(I931
I1
tp6511
a(I940
I1
tp6512
a(I941
I1
tp6513
a(I946
I1
tp6514
aa(lp6515
(I29
I1
tp6516
a(I182
I2
tp6517
a(I216
I1
tp6518
a(I255
I1
tp6519
a(I512
I1
tp6520
a(I515
I1
tp6521
a(I903
I1
tp6522
a(I904
I1
tp6523
a(I947
I1
tp6524
aa(lp6525
(I21
I1
tp6526
a(I170
I1
tp6527
a(I216
I1
tp6528
a(I515
I1
tp6529
a(I903
I1
tp6530
a(I904
I1
tp6531
a(I942
I1
tp6532
aa(lp6533
(I20
I1
tp6534
a(I170
I1
tp6535
a(I216
I1
tp6536
a(I515
I1
tp6537
a(I903
I1
tp6538
a(I904
I1
tp6539
a(I942
I1
tp6540
aa(lp6541
(I23
I1
tp6542
a(I170
I1
tp6543
a(I216
I1
tp6544
a(I515
I1
tp6545
a(I903
I1
tp6546
a(I904
I1
tp6547
a(I942
I1
tp6548
aa(lp6549
(I191
I1
tp6550
a(I287
I1
tp6551
a(I515
I1
tp6552
a(I927
I1
tp6553
a(I931
I1
tp6554
aa(lp6555
(I4
I1
tp6556
a(I207
I1
tp6557
a(I516
I1
tp6558
a(I948
I1
tp6559
aa(lp6560
(I66
I1
tp6561
a(I515
I1
tp6562
a(I797
I1
tp6563
a(I798
I2
tp6564
a(I949
I1
tp6565
aa(lp6566
(I69
I1
tp6567
a(I950
I1
tp6568
a(I951
I1
tp6569
aa(lp6570
(I3
I1
tp6571
a(I19
I1
tp6572
a(I21
I1
tp6573
aa(lp6574
(I54
I1
tp6575
aa(lp6576
(I0
I1
tp6577
a(I16
I1
tp6578
a(I54
I1
tp6579
a(I56
I1
tp6580
a(I464
I1
tp6581
a(I813
I1
tp6582
aa(lp6583
(I13
I1
tp6584
a(I19
I1
tp6585
a(I54
I1
tp6586
a(I59
I1
tp6587
a(I344
I1
tp6588
a(I813
I1
tp6589
aa(lp6590
(I13
I1
tp6591
a(I54
I1
tp6592
a(I59
I1
tp6593
a(I62
I1
tp6594
a(I128
I1
tp6595
a(I193
I1
tp6596
aa(lp6597
(I54
I1
tp6598
a(I56
I1
tp6599
a(I59
I1
tp6600
a(I62
I1
tp6601
a(I93
I1
tp6602
a(I251
I1
tp6603
a(I528
I1
tp6604
aa(lp6605
(I3
I1
tp6606
a(I13
I1
tp6607
a(I15
I1
tp6608
a(I19
I1
tp6609
a(I21
I1
tp6610
a(I54
I1
tp6611
a(I776
I1
tp6612
aa(lp6613
(I13
I1
tp6614
a(I54
I1
tp6615
a(I143
I1
tp6616
a(I464
I1
tp6617
aa(lp6618
(I13
I1
tp6619
a(I15
I1
tp6620
a(I19
I1
tp6621
a(I54
I1
tp6622
a(I55
I1
tp6623
a(I952
I1
tp6624
aa(lp6625
(I13
I1
tp6626
a(I54
I1
tp6627
a(I419
I1
tp6628
a(I813
I1
tp6629
aa(lp6630
(I3
I1
tp6631
a(I50
I1
tp6632
a(I54
I1
tp6633
a(I56
I1
tp6634
a(I170
I1
tp6635
a(I333
I1
tp6636
aa(lp6637
(I4
I1
tp6638
a(I408
I1
tp6639
a(I557
I1
tp6640
a(I953
I1
tp6641
a(I954
I1
tp6642
aa(lp6643
(I23
I1
tp6644
a(I29
I1
tp6645
a(I39
I1
tp6646
aa(lp6647
(I23
I1
tp6648
a(I55
I1
tp6649
a(I59
I1
tp6650
a(I62
I1
tp6651
a(I791
I1
tp6652
aa(lp6653
(I11
I1
tp6654
a(I23
I1
tp6655
a(I39
I1
tp6656
a(I298
I1
tp6657
aa(lp6658
(I4
I1
tp6659
a(I29
I1
tp6660
a(I360
I1
tp6661
a(I548
I1
tp6662
aa(lp6663
(I29
I1
tp6664
a(I32
I1
tp6665
a(I203
I1
tp6666
aa(lp6667
(I9
I1
tp6668
a(I44
I1
tp6669
a(I188
I1
tp6670
aa(lp6671
(I0
I1
tp6672
a(I11
I1
tp6673
a(I44
I1
tp6674
a(I105
I1
tp6675
aa(lp6676
(I43
I1
tp6677
a(I430
I1
tp6678
a(I955
I1
tp6679
aa(lp6680
(I11
I1
tp6681
a(I105
I1
tp6682
a(I182
I1
tp6683
aa(lp6684
(I13
I1
tp6685
a(I15
I1
tp6686
a(I19
I1
tp6687
a(I20
I1
tp6688
a(I54
I1
tp6689
a(I162
I1
tp6690
a(I776
I1
tp6691
aa(lp6692
(I11
I1
tp6693
a(I54
I1
tp6694
a(I59
I1
tp6695
a(I193
I1
tp6696
a(I207
I1
tp6697
a(I344
I1
tp6698
aa(lp6699
(I3
I1
tp6700
a(I11
I1
tp6701
a(I13
I1
tp6702
a(I54
I1
tp6703
a(I59
I1
tp6704
a(I62
I1
tp6705
a(I193
I1
tp6706
a(I344
I1
tp6707
aa(lp6708
(I3
I1
tp6709
a(I13
I1
tp6710
a(I19
I1
tp6711
a(I20
I1
tp6712
a(I41
I1
tp6713
a(I54
I1
tp6714
a(I344
I1
tp6715
a(I813
I1
tp6716
aa(lp6717
(I3
I1
tp6718
a(I13
I1
tp6719
a(I15
I1
tp6720
a(I19
I1
tp6721
a(I20
I1
tp6722
a(I54
I1
tp6723
a(I776
I1
tp6724
aa(lp6725
(I13
I1
tp6726
a(I19
I1
tp6727
a(I20
I1
tp6728
a(I41
I1
tp6729
a(I54
I1
tp6730
a(I59
I1
tp6731
a(I344
I1
tp6732
a(I820
I1
tp6733
aa(lp6734
(I13
I1
tp6735
a(I15
I1
tp6736
a(I54
I1
tp6737
a(I464
I1
tp6738
aa(lp6739
(I3
I1
tp6740
a(I41
I1
tp6741
a(I54
I1
tp6742
a(I344
I1
tp6743
a(I813
I1
tp6744
aa(lp6745
(I41
I1
tp6746
a(I54
I1
tp6747
a(I59
I1
tp6748
a(I344
I1
tp6749
a(I813
I1
tp6750
aa(lp6751
(I41
I1
tp6752
a(I788
I1
tp6753
a(I789
I1
tp6754
a(I813
I1
tp6755
aa(lp6756
(I23
I1
tp6757
a(I41
I1
tp6758
a(I59
I1
tp6759
a(I62
I1
tp6760
a(I90
I1
tp6761
a(I105
I1
tp6762
aa(lp6763
(I21
I1
tp6764
a(I148
I1
tp6765
a(I298
I1
tp6766
aa(lp6767
(I13
I1
tp6768
a(I19
I1
tp6769
a(I23
I1
tp6770
a(I55
I1
tp6771
a(I120
I1
tp6772
a(I658
I1
tp6773
aa(lp6774
(I21
I1
tp6775
a(I29
I1
tp6776
a(I36
I1
tp6777
a(I274
I1
tp6778
aa(lp6779
(I0
I1
tp6780
a(I13
I1
tp6781
a(I41
I1
tp6782
a(I50
I1
tp6783
a(I164
I1
tp6784
a(I299
I1
tp6785
a(I318
I1
tp6786
a(I597
I1
tp6787
a(I613
I1
tp6788
a(I956
I1
tp6789
a(I957
I1
tp6790
aa(lp6791
(I163
I1
tp6792
a(I164
I1
tp6793
a(I299
I1
tp6794
a(I957
I1
tp6795
a(I958
I1
tp6796
a(I959
I1
tp6797
a(I960
I1
tp6798
aa(lp6799
(I13
I1
tp6800
a(I138
I1
tp6801
a(I182
I1
tp6802
a(I183
I1
tp6803
a(I961
I1
tp6804
aa(lp6805
(I13
I1
tp6806
a(I61
I1
tp6807
a(I67
I1
tp6808
a(I182
I1
tp6809
a(I484
I1
tp6810
a(I962
I1
tp6811
aa(lp6812
(I3
I1
tp6813
a(I67
I1
tp6814
a(I114
I1
tp6815
a(I182
I1
tp6816
aa(lp6817
(I41
I1
tp6818
a(I50
I1
tp6819
a(I515
I1
tp6820
a(I903
I1
tp6821
a(I904
I1
tp6822
aa(lp6823
(I380
I1
tp6824
a(I963
I1
tp6825
aa(lp6826
(I54
I1
tp6827
a(I105
I1
tp6828
aa(lp6829
(I54
I1
tp6830
a(I644
I1
tp6831
aa(lp6832
(I3
I1
tp6833
a(I15
I1
tp6834
a(I34
I1
tp6835
a(I35
I1
tp6836
a(I54
I1
tp6837
a(I55
I1
tp6838
a(I163
I1
tp6839
a(I164
I1
tp6840
a(I776
I1
tp6841
a(I964
I1
tp6842
a(I965
I1
tp6843
aa(lp6844
(I557
I1
tp6845
a(I966
I1
tp6846
a(I967
I1
tp6847
aa(lp6848
(I968
I1
tp6849
a(I969
I1
tp6850
a(I970
I1
tp6851
aa(lp6852
(I4
I1
tp6853
a(I971
I1
tp6854
a(I972
I1
tp6855
a(I973
I1
tp6856
aa(lp6857
(I0
I1
tp6858
a(I11
I1
tp6859
a(I125
I1
tp6860
a(I136
I1
tp6861
a(I274
I1
tp6862
a(I333
I1
tp6863
a(I974
I1
tp6864
a(I975
I1
tp6865
a(I976
I1
tp6866
a(I977
I1
tp6867
a(I978
I1
tp6868
aa(lp6869
(I54
I1
tp6870
a(I55
I1
tp6871
a(I56
I1
tp6872
a(I83
I1
tp6873
a(I93
I1
tp6874
a(I146
I1
tp6875
a(I820
I1
tp6876
aa(lp6877
(I23
I1
tp6878
a(I33
I1
tp6879
aa(lp6880
(I61
I1
tp6881
a(I182
I1
tp6882
a(I979
I1
tp6883
aa(lp6884
(I287
I1
tp6885
a(I911
I1
tp6886
a(I924
I1
tp6887
aa(lp6888
(I13
I1
tp6889
a(I294
I1
tp6890
a(I354
I1
tp6891
a(I380
I1
tp6892
a(I901
I1
tp6893
a(I963
I1
tp6894
a(I980
I1
tp6895
a(I981
I1
tp6896
aa(lp6897
(I15
I1
tp6898
a(I54
I1
tp6899
a(I162
I1
tp6900
a(I170
I1
tp6901
a(I776
I1
tp6902
a(I820
I1
tp6903
aa(lp6904
(I4
I1
tp6905
a(I13
I1
tp6906
a(I67
I1
tp6907
a(I174
I1
tp6908
a(I391
I1
tp6909
a(I897
I1
tp6910
a(I982
I1
tp6911
aa(lp6912
(I4
I1
tp6913
a(I13
I1
tp6914
a(I200
I1
tp6915
a(I359
I1
tp6916
aa(lp6917
(I4
I1
tp6918
a(I174
I1
tp6919
a(I260
I1
tp6920
a(I413
I1
tp6921
aa(lp6922
(I36
I1
tp6923
a(I515
I1
tp6924
a(I927
I1
tp6925
a(I932
I1
tp6926
aa(lp6927
(I67
I1
tp6928
a(I901
I1
tp6929
a(I980
I1
tp6930
aa(lp6931
(I4
I1
tp6932
a(I13
I1
tp6933
a(I36
I1
tp6934
a(I391
I1
tp6935
a(I897
I1
tp6936
a(I982
I1
tp6937
aa(lp6938
(I4
I1
tp6939
a(I260
I1
tp6940
a(I413
I1
tp6941
a(I938
I1
tp6942
a(I983
I1
tp6943
aa(lp6944
(I4
I1
tp6945
a(I31
I1
tp6946
a(I260
I1
tp6947
a(I984
I1
tp6948
aa(lp6949
(I4
I1
tp6950
a(I260
I1
tp6951
a(I306
I1
tp6952
aa(lp6953
(I191
I1
tp6954
a(I654
I1
tp6955
a(I803
I1
tp6956
a(I985
I1
tp6957
aa(lp6958
(I20
I1
tp6959
a(I23
I1
tp6960
a(I178
I1
tp6961
a(I273
I1
tp6962
a(I282
I1
tp6963
a(I383
I1
tp6964
a(I739
I1
tp6965
aa(lp6966
(I191
I1
tp6967
a(I259
I1
tp6968
a(I380
I1
tp6969
a(I869
I1
tp6970
a(I986
I1
tp6971
aa(lp6972
(I4
I1
tp6973
a(I214
I1
tp6974
a(I215
I1
tp6975
a(I260
I1
tp6976
aa(lp6977
(I4
I1
tp6978
a(I260
I1
tp6979
a(I557
I1
tp6980
a(I987
I1
tp6981
aa(lp6982
(I11
I1
tp6983
a(I13
I1
tp6984
a(I658
I1
tp6985
a(I976
I1
tp6986
a(I985
I1
tp6987
aa(lp6988
(I3
I1
tp6989
a(I13
I1
tp6990
a(I803
I1
tp6991
a(I909
I1
tp6992
a(I988
I1
tp6993
aa(lp6994
(I13
I1
tp6995
a(I19
I1
tp6996
a(I20
I1
tp6997
a(I55
I1
tp6998
a(I273
I1
tp6999
a(I307
I1
tp7000
a(I322
I1
tp7001
aa(lp7002
(I819
I1
tp7003
a(I989
I1
tp7004
a(I990
I1
tp7005
aa(lp7006
(I3
I1
tp7007
a(I13
I1
tp7008
a(I19
I1
tp7009
a(I20
I1
tp7010
a(I55
I1
tp7011
a(I273
I1
tp7012
a(I307
I1
tp7013
aa(lp7014
(I13
I1
tp7015
a(I23
I1
tp7016
a(I64
I1
tp7017
a(I273
I1
tp7018
a(I282
I1
tp7019
a(I297
I1
tp7020
a(I383
I1
tp7021
a(I991
I1
tp7022
aa(lp7023
(I380
I1
tp7024
a(I869
I1
tp7025
a(I986
I1
tp7026
a(I992
I1
tp7027
aa(lp7028
(I18
I1
tp7029
a(I191
I1
tp7030
a(I266
I1
tp7031
a(I340
I1
tp7032
aa(lp7033
(I20
I1
tp7034
a(I191
I1
tp7035
a(I340
I1
tp7036
aa(lp7037
(I340
I1
tp7038
a(I808
I1
tp7039
a(I827
I1
tp7040
a(I993
I1
tp7041
aa(lp7042
(I340
I1
tp7043
a(I515
I1
tp7044
a(I777
I1
tp7045
a(I808
I1
tp7046
a(I828
I1
tp7047
a(I994
I1
tp7048
aa(lp7049
(I4
I1
tp7050
a(I36
I1
tp7051
a(I215
I1
tp7052
a(I354
I1
tp7053
a(I357
I1
tp7054
a(I995
I1
tp7055
aa(lp7056
(I88
I1
tp7057
a(I260
I1
tp7058
aa(lp7059
(I13
I1
tp7060
a(I191
I1
tp7061
a(I513
I1
tp7062
a(I658
I1
tp7063
a(I976
I1
tp7064
a(I985
I1
tp7065
a(I996
I1
tp7066
aa(lp7067
(I626
I1
tp7068
a(I798
I1
tp7069
a(I997
I1
tp7070
aa(lp7071
(I3
I1
tp7072
a(I19
I1
tp7073
a(I20
I1
tp7074
a(I55
I1
tp7075
a(I307
I1
tp7076
a(I998
I1
tp7077
aa(lp7078
(I13
I1
tp7079
a(I19
I1
tp7080
a(I20
I1
tp7081
a(I55
I1
tp7082
a(I273
I1
tp7083
a(I307
I1
tp7084
a(I999
I1
tp7085
aa(lp7086
(I11
I1
tp7087
a(I105
I1
tp7088
a(I271
I1
tp7089
a(I272
I1
tp7090
a(I273
I2
tp7091
a(I275
I1
tp7092
a(I282
I1
tp7093
a(I298
I1
tp7094
a(I512
I1
tp7095
aa(lp7096
(I2
I1
tp7097
a(I3
I1
tp7098
a(I20
I1
tp7099
a(I516
I1
tp7100
a(I625
I1
tp7101
aa(lp7102
(I193
I1
tp7103
a(I207
I1
tp7104
a(I340
I1
tp7105
a(I515
I1
tp7106
aa(lp7107
(I3
I1
tp7108
a(I193
I1
tp7109
a(I340
I1
tp7110
a(I808
I1
tp7111
aa(lp7112
(I30
I1
tp7113
a(I191
I1
tp7114
a(I207
I1
tp7115
a(I340
I1
tp7116
aa(lp7117
(I20
I1
tp7118
a(I191
I1
tp7119
a(I207
I1
tp7120
a(I340
I1
tp7121
aa(lp7122
(I21
I1
tp7123
a(I193
I1
tp7124
a(I207
I1
tp7125
a(I340
I1
tp7126
aa(lp7127
(I32
I1
tp7128
a(I88
I1
tp7129
a(I260
I1
tp7130
aa(lp7131
(I88
I1
tp7132
a(I260
I1
tp7133
a(I1000
I1
tp7134
a(I1001
I1
tp7135
aa(lp7136
(I4
I1
tp7137
a(I88
I1
tp7138
a(I260
I1
tp7139
a(I1002
I1
tp7140
aa(lp7141
(I3
I1
tp7142
a(I13
I1
tp7143
a(I20
I1
tp7144
a(I216
I1
tp7145
a(I658
I1
tp7146
a(I985
I1
tp7147
aa(lp7148
(I3
I1
tp7149
a(I13
I1
tp7150
a(I21
I1
tp7151
a(I216
I1
tp7152
a(I658
I1
tp7153
a(I985
I1
tp7154
aa(lp7155
(I3
I1
tp7156
a(I13
I1
tp7157
a(I15
I1
tp7158
a(I69
I1
tp7159
a(I216
I1
tp7160
a(I658
I1
tp7161
a(I985
I1
tp7162
aa(lp7163
(I3
I1
tp7164
a(I13
I1
tp7165
a(I23
I1
tp7166
a(I216
I1
tp7167
a(I658
I1
tp7168
a(I985
I1
tp7169
aa(lp7170
(I11
I1
tp7171
a(I43
I1
tp7172
a(I273
I1
tp7173
a(I313
I1
tp7174
a(I999
I1
tp7175
a(I1003
I1
tp7176
aa(lp7177
(I13
I1
tp7178
a(I19
I1
tp7179
a(I26
I1
tp7180
a(I55
I1
tp7181
a(I231
I1
tp7182
a(I273
I1
tp7183
a(I419
I1
tp7184
aa(lp7185
(I21
I1
tp7186
a(I193
I1
tp7187
a(I207
I1
tp7188
a(I340
I1
tp7189
a(I515
I1
tp7190
aa(lp7191
(I20
I1
tp7192
a(I193
I1
tp7193
a(I207
I1
tp7194
a(I340
I1
tp7195
a(I515
I1
tp7196
aa(lp7197
(I23
I1
tp7198
a(I193
I1
tp7199
a(I207
I1
tp7200
a(I340
I1
tp7201
a(I515
I1
tp7202
aa(lp7203
(I3
I1
tp7204
a(I19
I1
tp7205
a(I21
I1
tp7206
a(I170
I1
tp7207
a(I216
I1
tp7208
a(I340
I1
tp7209
a(I515
I1
tp7210
aa(lp7211
(I3
I1
tp7212
a(I19
I1
tp7213
a(I20
I1
tp7214
a(I170
I1
tp7215
a(I216
I1
tp7216
a(I340
I1
tp7217
a(I515
I1
tp7218
aa(lp7219
(I3
I1
tp7220
a(I19
I1
tp7221
a(I23
I1
tp7222
a(I170
I1
tp7223
a(I216
I1
tp7224
a(I340
I1
tp7225
a(I515
I1
tp7226
aa(lp7227
(I30
I1
tp7228
a(I83
I1
tp7229
a(I193
I1
tp7230
a(I207
I1
tp7231
a(I340
I1
tp7232
aa(lp7233
(I30
I1
tp7234
a(I193
I1
tp7235
a(I207
I1
tp7236
a(I340
I1
tp7237
a(I1004
I1
tp7238
aa(lp7239
(I30
I1
tp7240
a(I193
I1
tp7241
a(I207
I1
tp7242
a(I340
I1
tp7243
a(I1005
I1
tp7244
aa(lp7245
(I23
I1
tp7246
a(I30
I1
tp7247
a(I193
I1
tp7248
a(I207
I1
tp7249
a(I340
I1
tp7250
aa(lp7251
(I4
I1
tp7252
a(I191
I1
tp7253
a(I207
I1
tp7254
a(I228
I1
tp7255
aa(lp7256
(I18
I1
tp7257
a(I21
I1
tp7258
a(I191
I1
tp7259
a(I207
I1
tp7260
a(I216
I1
tp7261
a(I266
I1
tp7262
a(I340
I1
tp7263
aa(lp7264
(I18
I1
tp7265
a(I20
I1
tp7266
a(I191
I1
tp7267
a(I207
I1
tp7268
a(I216
I1
tp7269
a(I266
I1
tp7270
a(I340
I1
tp7271
aa(lp7272
(I32
I1
tp7273
a(I33
I1
tp7274
aa(lp7275
(I4
I1
tp7276
a(I25
I1
tp7277
a(I88
I1
tp7278
a(I260
I1
tp7279
aa(lp7280
(I3
I1
tp7281
a(I13
I1
tp7282
a(I19
I1
tp7283
a(I55
I1
tp7284
a(I950
I1
tp7285
a(I1006
I1
tp7286
a(I1007
I1
tp7287
a(I1008
I1
tp7288
aa(lp7289
(I3
I1
tp7290
a(I19
I1
tp7291
a(I21
I1
tp7292
a(I55
I1
tp7293
a(I700
I1
tp7294
a(I1009
I1
tp7295
aa(lp7296
(I13
I1
tp7297
a(I167
I1
tp7298
a(I231
I1
tp7299
a(I273
I1
tp7300
a(I313
I1
tp7301
a(I521
I1
tp7302
a(I1003
I1
tp7303
aa(lp7304
(I13
I1
tp7305
a(I231
I1
tp7306
a(I266
I1
tp7307
a(I273
I1
tp7308
aa(lp7309
(I193
I1
tp7310
a(I207
I1
tp7311
a(I340
I1
tp7312
a(I808
I1
tp7313
aa(lp7314
(I4
I1
tp7315
a(I193
I1
tp7316
a(I340
I1
tp7317
a(I1000
I1
tp7318
aa(lp7319
(I4
I1
tp7320
a(I20
I1
tp7321
a(I216
I1
tp7322
a(I497
I1
tp7323
aa(lp7324
(I20
I1
tp7325
a(I41
I1
tp7326
a(I105
I1
tp7327
a(I228
I1
tp7328
aa(lp7329
(I13
I1
tp7330
a(I19
I1
tp7331
a(I55
I1
tp7332
a(I207
I1
tp7333
a(I950
I1
tp7334
a(I1006
I1
tp7335
a(I1007
I1
tp7336
a(I1008
I1
tp7337
aa(lp7338
(I3
I1
tp7339
a(I19
I1
tp7340
a(I20
I1
tp7341
a(I55
I1
tp7342
a(I700
I1
tp7343
a(I1009
I1
tp7344
aa(lp7345
(I3
I1
tp7346
a(I13
I1
tp7347
a(I163
I1
tp7348
a(I227
I1
tp7349
a(I700
I1
tp7350
a(I1009
I1
tp7351
a(I1010
I1
tp7352
aa(lp7353
(I34
I1
tp7354
a(I35
I1
tp7355
a(I153
I1
tp7356
a(I164
I1
tp7357
a(I231
I1
tp7358
a(I266
I1
tp7359
a(I273
I1
tp7360
a(I285
I1
tp7361
a(I295
I1
tp7362
a(I296
I1
tp7363
a(I298
I1
tp7364
aa(lp7365
(I11
I1
tp7366
a(I193
I1
tp7367
a(I237
I1
tp7368
a(I827
I1
tp7369
a(I1011
I1
tp7370
aa(lp7371
(I2
I1
tp7372
a(I18
I1
tp7373
a(I19
I1
tp7374
a(I266
I1
tp7375
a(I340
I1
tp7376
aa(lp7377
(I4
I1
tp7378
a(I13
I1
tp7379
a(I193
I1
tp7380
a(I340
I1
tp7381
a(I808
I1
tp7382
aa(lp7383
(I13
I1
tp7384
a(I19
I1
tp7385
a(I55
I1
tp7386
a(I105
I1
tp7387
a(I950
I1
tp7388
a(I1006
I1
tp7389
a(I1007
I1
tp7390
a(I1008
I1
tp7391
aa(lp7392
(I13
I1
tp7393
a(I19
I1
tp7394
a(I67
I1
tp7395
a(I950
I1
tp7396
a(I1012
I1
tp7397
aa(lp7398
(I19
I1
tp7399
a(I55
I1
tp7400
a(I950
I1
tp7401
a(I1006
I1
tp7402
a(I1008
I1
tp7403
a(I1013
I1
tp7404
aa(lp7405
(I13
I1
tp7406
a(I19
I1
tp7407
a(I55
I1
tp7408
a(I157
I1
tp7409
a(I950
I1
tp7410
a(I1006
I1
tp7411
a(I1007
I1
tp7412
a(I1014
I1
tp7413
a(I1015
I1
tp7414
aa(lp7415
(I13
I1
tp7416
a(I141
I1
tp7417
a(I700
I1
tp7418
a(I1009
I1
tp7419
aa(lp7420
(I700
I1
tp7421
a(I1009
I1
tp7422
a(I1016
I1
tp7423
a(I1017
I1
tp7424
aa(lp7425
(I11
I1
tp7426
a(I21
I1
tp7427
a(I41
I1
tp7428
a(I50
I1
tp7429
a(I340
I1
tp7430
aa(lp7431
(I3
I1
tp7432
a(I13
I2
tp7433
a(I19
I1
tp7434
a(I43
I1
tp7435
a(I45
I1
tp7436
a(I55
I1
tp7437
a(I950
I2
tp7438
a(I1006
I2
tp7439
a(I1007
I2
tp7440
a(I1008
I2
tp7441
a(I1018
I1
tp7442
aa(lp7443
(I13
I1
tp7444
a(I61
I1
tp7445
a(I105
I1
tp7446
a(I402
I1
tp7447
a(I950
I1
tp7448
a(I1006
I1
tp7449
a(I1008
I1
tp7450
aa(lp7451
(I13
I1
tp7452
a(I128
I1
tp7453
a(I133
I1
tp7454
a(I950
I1
tp7455
a(I1012
I1
tp7456
aa(lp7457
(I20
I1
tp7458
a(I157
I1
tp7459
a(I172
I1
tp7460
a(I216
I1
tp7461
a(I1006
I1
tp7462
a(I1008
I1
tp7463
aa(lp7464
(I21
I1
tp7465
a(I157
I1
tp7466
a(I172
I1
tp7467
a(I216
I1
tp7468
a(I1006
I1
tp7469
a(I1008
I1
tp7470
aa(lp7471
(I23
I1
tp7472
a(I157
I1
tp7473
a(I172
I1
tp7474
a(I216
I1
tp7475
a(I1006
I1
tp7476
a(I1008
I1
tp7477
aa(lp7478
(I20
I1
tp7479
a(I172
I1
tp7480
a(I216
I1
tp7481
a(I1006
I1
tp7482
a(I1008
I1
tp7483
a(I1013
I1
tp7484
aa(lp7485
(I21
I1
tp7486
a(I172
I1
tp7487
a(I216
I1
tp7488
a(I1006
I1
tp7489
a(I1008
I1
tp7490
a(I1013
I1
tp7491
aa(lp7492
(I13
I1
tp7493
a(I294
I1
tp7494
a(I354
I1
tp7495
a(I942
I1
tp7496
a(I950
I1
tp7497
a(I1006
I1
tp7498
a(I1007
I1
tp7499
a(I1014
I1
tp7500
a(I1015
I1
tp7501
a(I1019
I1
tp7502
aa(lp7503
(I56
I1
tp7504
a(I93
I1
tp7505
a(I657
I1
tp7506
a(I950
I1
tp7507
a(I1006
I1
tp7508
a(I1007
I1
tp7509
a(I1008
I1
tp7510
a(I1013
I1
tp7511
a(I1019
I1
tp7512
a(I1020
I1
tp7513
aa(lp7514
(I21
I1
tp7515
a(I41
I1
tp7516
a(I83
I1
tp7517
a(I105
I1
tp7518
a(I340
I1
tp7519
aa(lp7520
(I20
I1
tp7521
a(I21
I1
tp7522
a(I41
I1
tp7523
a(I105
I1
tp7524
a(I216
I1
tp7525
a(I340
I1
tp7526
aa(lp7527
(I3
I1
tp7528
a(I21
I1
tp7529
a(I216
I1
tp7530
a(I950
I1
tp7531
a(I1006
I1
tp7532
a(I1008
I1
tp7533
aa(lp7534
(I3
I1
tp7535
a(I20
I1
tp7536
a(I216
I1
tp7537
a(I950
I1
tp7538
a(I1006
I1
tp7539
a(I1008
I1
tp7540
aa(lp7541
(I3
I1
tp7542
a(I23
I1
tp7543
a(I216
I1
tp7544
a(I950
I1
tp7545
a(I1006
I1
tp7546
a(I1008
I1
tp7547
aa(lp7548
(I61
I1
tp7549
a(I592
I1
tp7550
a(I1006
I1
tp7551
a(I1008
I1
tp7552
a(I1018
I1
tp7553
aa(lp7554
(I513
I1
tp7555
a(I950
I1
tp7556
a(I1021
I1
tp7557
aa(lp7558
(I13
I1
tp7559
a(I395
I1
tp7560
a(I950
I1
tp7561
a(I1012
I1
tp7562
aa(lp7563
(I0
I1
tp7564
a(I20
I1
tp7565
a(I55
I1
tp7566
a(I159
I1
tp7567
a(I162
I1
tp7568
a(I798
I1
tp7569
aa(lp7570
(I0
I1
tp7571
a(I21
I1
tp7572
a(I55
I1
tp7573
a(I159
I1
tp7574
a(I162
I1
tp7575
a(I798
I1
tp7576
aa(lp7577
(I0
I1
tp7578
a(I23
I1
tp7579
a(I159
I1
tp7580
a(I162
I1
tp7581
a(I798
I1
tp7582
aa(lp7583
(I11
I1
tp7584
a(I67
I1
tp7585
a(I285
I1
tp7586
a(I667
I1
tp7587
a(I1006
I1
tp7588
a(I1008
I2
tp7589
a(I1018
I1
tp7590
a(I1022
I1
tp7591
a(I1023
I1
tp7592
a(I1024
I1
tp7593
aa(lp7594
(I128
I1
tp7595
a(I707
I1
tp7596
a(I950
I1
tp7597
a(I1006
I1
tp7598
a(I1008
I1
tp7599
aa(lp7600
(I20
I1
tp7601
a(I41
I1
tp7602
a(I105
I1
tp7603
a(I340
I1
tp7604
aa(lp7605
(I11
I1
tp7606
a(I225
I1
tp7607
a(I592
I1
tp7608
a(I697
I1
tp7609
a(I837
I1
tp7610
a(I1006
I1
tp7611
a(I1008
I1
tp7612
a(I1018
I1
tp7613
a(I1025
I1
tp7614
a(I1026
I1
tp7615
aa(lp7616
(I20
I1
tp7617
a(I33
I1
tp7618
a(I322
I1
tp7619
a(I858
I1
tp7620
aa(lp7621
(I13
I1
tp7622
a(I19
I1
tp7623
a(I55
I1
tp7624
a(I950
I1
tp7625
a(I1006
I1
tp7626
a(I1008
I1
tp7627
a(I1013
I1
tp7628
a(I1027
I1
tp7629
aa(lp7630
(I13
I1
tp7631
a(I141
I1
tp7632
a(I172
I1
tp7633
a(I950
I1
tp7634
a(I1006
I1
tp7635
a(I1008
I1
tp7636
aa(lp7637
(I11
I1
tp7638
a(I13
I1
tp7639
a(I128
I1
tp7640
a(I950
I1
tp7641
a(I995
I1
tp7642
a(I1006
I1
tp7643
a(I1008
I1
tp7644
a(I1018
I1
tp7645
aa(lp7646
(I19
I1
tp7647
a(I55
I1
tp7648
a(I148
I1
tp7649
a(I950
I1
tp7650
a(I1028
I1
tp7651
aa(lp7652
(I11
I1
tp7653
a(I225
I1
tp7654
a(I592
I1
tp7655
a(I1006
I1
tp7656
a(I1008
I1
tp7657
a(I1018
I1
tp7658
a(I1029
I1
tp7659
a(I1030
I1
tp7660
aa(lp7661
(I21
I1
tp7662
a(I950
I1
tp7663
a(I1012
I1
tp7664
aa(lp7665
(I20
I1
tp7666
a(I950
I1
tp7667
a(I1012
I1
tp7668
aa(lp7669
(I23
I1
tp7670
a(I950
I1
tp7671
a(I1012
I1
tp7672
aa(lp7673
(I15
I1
tp7674
a(I69
I1
tp7675
a(I950
I1
tp7676
a(I1012
I1
tp7677
aa(lp7678
(I13
I1
tp7679
a(I395
I1
tp7680
a(I950
I1
tp7681
aa(lp7682
(I13
I1
tp7683
a(I31
I1
tp7684
a(I208
I1
tp7685
a(I354
I1
tp7686
a(I950
I1
tp7687
a(I995
I1
tp7688
a(I1006
I1
tp7689
a(I1008
I1
tp7690
a(I1018
I2
tp7691
aa(lp7692
(I128
I1
tp7693
a(I133
I1
tp7694
a(I950
I1
tp7695
a(I1012
I1
tp7696
aa(lp7697
(I13
I1
tp7698
a(I66
I1
tp7699
a(I287
I1
tp7700
a(I844
I1
tp7701
a(I950
I1
tp7702
a(I1012
I1
tp7703
aa(lp7704
(I11
I1
tp7705
a(I13
I1
tp7706
a(I58
I1
tp7707
a(I512
I1
tp7708
a(I946
I1
tp7709
a(I950
I1
tp7710
a(I1028
I1
tp7711
a(I1031
I1
tp7712
aa(lp7713
(I13
I1
tp7714
a(I58
I1
tp7715
a(I240
I1
tp7716
a(I950
I1
tp7717
a(I976
I1
tp7718
aa(lp7719
(I13
I1
tp7720
a(I31
I1
tp7721
a(I150
I1
tp7722
a(I950
I1
tp7723
a(I1006
I1
tp7724
a(I1008
I1
tp7725
a(I1032
I1
tp7726
aa(lp7727
(I9
I1
tp7728
a(I11
I1
tp7729
a(I57
I1
tp7730
a(I186
I1
tp7731
a(I950
I1
tp7732
a(I1033
I1
tp7733
aa(lp7734
(I3
I1
tp7735
a(I950
I1
tp7736
a(I1034
I1
tp7737
aa(lp7738
(I9
I1
tp7739
a(I188
I1
tp7740
a(I995
I1
tp7741
a(I1035
I1
tp7742
aa(lp7743
(I13
I1
tp7744
a(I293
I1
tp7745
a(I375
I1
tp7746
a(I1031
I1
tp7747
a(I1036
I1
tp7748
aa(lp7749
(I13
I1
tp7750
a(I240
I1
tp7751
a(I950
I1
tp7752
a(I1037
I1
tp7753
aa(lp7754
(I13
I1
tp7755
a(I419
I1
tp7756
a(I950
I1
tp7757
a(I1006
I1
tp7758
a(I1008
I1
tp7759
a(I1032
I1
tp7760
aa(lp7761
(I3
I1
tp7762
a(I11
I1
tp7763
a(I938
I1
tp7764
a(I950
I1
tp7765
aa(lp7766
(I3
I1
tp7767
a(I19
I1
tp7768
a(I45
I1
tp7769
a(I207
I1
tp7770
a(I293
I1
tp7771
a(I950
I1
tp7772
a(I1038
I1
tp7773
aa(lp7774
(I13
I1
tp7775
a(I350
I1
tp7776
a(I950
I1
tp7777
a(I1039
I1
tp7778
aa(lp7779
(I3
I1
tp7780
a(I13
I1
tp7781
a(I150
I1
tp7782
a(I223
I1
tp7783
a(I950
I1
tp7784
aa(lp7785
(I13
I1
tp7786
a(I185
I1
tp7787
a(I950
I1
tp7788
a(I1036
I1
tp7789
a(I1040
I1
tp7790
aa(lp7791
(I3
I1
tp7792
a(I21
I1
tp7793
a(I950
I1
tp7794
a(I1041
I1
tp7795
aa(lp7796
(I3
I1
tp7797
a(I20
I1
tp7798
a(I950
I1
tp7799
a(I1041
I1
tp7800
aa(lp7801
(I3
I1
tp7802
a(I23
I1
tp7803
a(I950
I1
tp7804
a(I1041
I1
tp7805
aa(lp7806
(I13
I1
tp7807
a(I61
I1
tp7808
a(I285
I1
tp7809
a(I614
I1
tp7810
a(I950
I1
tp7811
a(I976
I1
tp7812
a(I1042
I1
tp7813
aa(lp7814
(I43
I1
tp7815
a(I83
I1
tp7816
a(I216
I1
tp7817
a(I950
I1
tp7818
a(I1038
I1
tp7819
aa(lp7820
(I21
I1
tp7821
a(I43
I1
tp7822
a(I216
I1
tp7823
a(I950
I1
tp7824
a(I1038
I1
tp7825
aa(lp7826
(I20
I1
tp7827
a(I43
I1
tp7828
a(I216
I1
tp7829
a(I950
I1
tp7830
a(I1038
I1
tp7831
aa(lp7832
(I15
I1
tp7833
a(I43
I1
tp7834
a(I69
I1
tp7835
a(I216
I1
tp7836
a(I950
I1
tp7837
a(I1038
I1
tp7838
aa(lp7839
(I23
I1
tp7840
a(I43
I1
tp7841
a(I216
I1
tp7842
a(I950
I1
tp7843
a(I1038
I1
tp7844
aa(lp7845
(I15
I1
tp7846
a(I37
I1
tp7847
a(I56
I1
tp7848
a(I64
I1
tp7849
a(I146
I1
tp7850
a(I950
I1
tp7851
a(I976
I1
tp7852
aa(lp7853
(I11
I1
tp7854
a(I167
I1
tp7855
a(I240
I1
tp7856
a(I950
I1
tp7857
a(I1028
I1
tp7858
a(I1031
I1
tp7859
a(I1043
I1
tp7860
a(I1044
I1
tp7861
a(I1045
I1
tp7862
a(I1046
I1
tp7863
a(I1047
I1
tp7864
aa(lp7865
(I773
I1
tp7866
a(I1040
I1
tp7867
a(I1048
I1
tp7868
a(I1049
I1
tp7869
aa(lp7870
(I93
I1
tp7871
a(I773
I1
tp7872
a(I857
I1
tp7873
a(I950
I1
tp7874
a(I1050
I1
tp7875
aa(lp7876
(I60
I1
tp7877
a(I61
I1
tp7878
a(I63
I1
tp7879
a(I950
I1
tp7880
a(I1038
I1
tp7881
aa(lp7882
(I58
I1
tp7883
a(I950
I1
tp7884
aa(lp7885
(I3
I1
tp7886
a(I58
I1
tp7887
a(I274
I1
tp7888
a(I950
I1
tp7889
a(I1051
I1
tp7890
aa(lp7891
(I31
I1
tp7892
a(I395
I1
tp7893
a(I950
I1
tp7894
aa(lp7895
(I58
I1
tp7896
a(I199
I1
tp7897
a(I950
I1
tp7898
a(I976
I1
tp7899
aa(lp7900
(I58
I1
tp7901
a(I199
I1
tp7902
a(I950
I1
tp7903
a(I1028
I1
tp7904
aa(lp7905
(I13
I1
tp7906
a(I58
I1
tp7907
a(I512
I1
tp7908
a(I946
I1
tp7909
a(I950
I1
tp7910
a(I1028
I1
tp7911
a(I1031
I1
tp7912
aa(lp7913
(I423
I1
tp7914
a(I950
I1
tp7915
a(I976
I1
tp7916
aa(lp7917
(I3
I1
tp7918
a(I950
I1
tp7919
a(I1052
I1
tp7920
aa(lp7921
(I13
I1
tp7922
a(I293
I1
tp7923
a(I294
I1
tp7924
a(I1031
I1
tp7925
a(I1036
I1
tp7926
aa(lp7927
(I13
I1
tp7928
a(I58
I1
tp7929
a(I512
I1
tp7930
a(I946
I1
tp7931
a(I950
I1
tp7932
a(I1028
I1
tp7933
aa(lp7934
(I20
I1
tp7935
a(I950
I1
tp7936
a(I976
I1
tp7937
aa(lp7938
(I21
I1
tp7939
a(I950
I1
tp7940
a(I976
I1
tp7941
aa(lp7942
(I19
I1
tp7943
a(I23
I1
tp7944
a(I950
I1
tp7945
a(I976
I1
tp7946
aa(lp7947
(I61
I1
tp7948
a(I223
I1
tp7949
a(I950
I1
tp7950
aa(lp7951
(I950
I1
tp7952
a(I1031
I1
tp7953
a(I1053
I1
tp7954
aa(lp7955
(I614
I1
tp7956
a(I950
I1
tp7957
a(I1031
I1
tp7958
a(I1042
I1
tp7959
aa(lp7960
(I164
I1
tp7961
a(I837
I1
tp7962
a(I950
I1
tp7963
a(I1026
I1
tp7964
a(I1031
I1
tp7965
aa(lp7966
(I60
I1
tp7967
a(I61
I1
tp7968
a(I63
I1
tp7969
a(I950
I1
tp7970
a(I1028
I1
tp7971
aa(lp7972
(I13
I1
tp7973
a(I125
I1
tp7974
a(I375
I1
tp7975
a(I789
I1
tp7976
a(I950
I1
tp7977
a(I1054
I1
tp7978
aa(lp7979
(I13
I1
tp7980
a(I64
I1
tp7981
a(I384
I1
tp7982
a(I942
I1
tp7983
a(I950
I1
tp7984
a(I976
I1
tp7985
a(I1028
I1
tp7986
aa(lp7987
(I0
I1
tp7988
a(I3
I1
tp7989
a(I21
I1
tp7990
a(I216
I1
tp7991
a(I837
I1
tp7992
aa(lp7993
(I0
I1
tp7994
a(I3
I1
tp7995
a(I20
I1
tp7996
a(I216
I1
tp7997
a(I837
I1
tp7998
aa(lp7999
(I0
I1
tp8000
a(I3
I1
tp8001
a(I23
I1
tp8002
a(I216
I1
tp8003
a(I837
I1
tp8004
aa(lp8005
(I174
I1
tp8006
a(I950
I1
tp8007
a(I1028
I1
tp8008
aa(lp8009
(I203
I1
tp8010
a(I950
I1
tp8011
a(I1028
I1
tp8012
aa(lp8013
(I125
I1
tp8014
a(I513
I1
tp8015
a(I950
I1
tp8016
a(I1054
I1
tp8017
a(I1055
I1
tp8018
aa(lp8019
(I61
I1
tp8020
a(I505
I1
tp8021
a(I515
I1
tp8022
a(I1028
I1
tp8023
a(I1056
I1
tp8024
aa(lp8025
(I3
I1
tp8026
a(I21
I1
tp8027
a(I1057
I1
tp8028
aa(lp8029
(I3
I1
tp8030
a(I20
I1
tp8031
a(I1057
I1
tp8032
aa(lp8033
(I3
I1
tp8034
a(I23
I1
tp8035
a(I1057
I1
tp8036
aa(lp8037
(I3
I1
tp8038
a(I292
I1
tp8039
a(I1057
I1
tp8040
a(I1058
I1
tp8041
a(I1059
I1
tp8042
aa(lp8043
(I174
I1
tp8044
a(I203
I1
tp8045
a(I950
I1
tp8046
a(I1028
I1
tp8047
aa(lp8048
(I0
I1
tp8049
a(I164
I1
tp8050
a(I203
I1
tp8051
a(I950
I1
tp8052
a(I1028
I1
tp8053
a(I1060
I1
tp8054
aa(lp8055
(I218
I1
tp8056
a(I950
I1
tp8057
a(I1031
I1
tp8058
aa(lp8059
(I23
I1
tp8060
a(I216
I1
tp8061
a(I505
I1
tp8062
a(I515
I1
tp8063
a(I1028
I1
tp8064
a(I1051
I1
tp8065
a(I1056
I1
tp8066
aa(lp8067
(I61
I1
tp8068
a(I249
I1
tp8069
a(I300
I1
tp8070
a(I515
I1
tp8071
a(I1028
I1
tp8072
a(I1061
I1
tp8073
aa(lp8074
(I61
I1
tp8075
a(I249
I1
tp8076
a(I515
I1
tp8077
a(I615
I1
tp8078
a(I1028
I1
tp8079
a(I1061
I1
tp8080
aa(lp8081
(I19
I1
tp8082
a(I21
I1
tp8083
a(I55
I1
tp8084
a(I950
I1
tp8085
a(I1028
I1
tp8086
aa(lp8087
(I19
I1
tp8088
a(I20
I1
tp8089
a(I55
I1
tp8090
a(I950
I1
tp8091
a(I1028
I1
tp8092
aa(lp8093
(I11
I1
tp8094
a(I30
I1
tp8095
a(I950
I1
tp8096
a(I1028
I1
tp8097
aa(lp8098
(I15
I1
tp8099
a(I19
I1
tp8100
a(I55
I1
tp8101
a(I69
I1
tp8102
a(I950
I1
tp8103
a(I1028
I1
tp8104
aa(lp8105
(I148
I1
tp8106
a(I216
I1
tp8107
a(I505
I1
tp8108
a(I515
I1
tp8109
a(I1028
I1
tp8110
a(I1051
I1
tp8111
a(I1056
I1
tp8112
aa(lp8113
(I23
I1
tp8114
a(I216
I1
tp8115
a(I515
I1
tp8116
a(I1028
I1
tp8117
a(I1051
I1
tp8118
a(I1061
I1
tp8119
aa(lp8120
(I11
I1
tp8121
a(I23
I1
tp8122
a(I30
I1
tp8123
a(I282
I1
tp8124
a(I1062
I1
tp8125
aa(lp8126
(I4
I1
tp8127
a(I25
I1
tp8128
a(I29
I1
tp8129
a(I30
I1
tp8130
aa(lp8131
(I11
I1
tp8132
a(I23
I1
tp8133
a(I40
I1
tp8134
a(I603
I1
tp8135
a(I616
I1
tp8136
a(I1063
I1
tp8137
aa(lp8138
(I3
I1
tp8139
a(I4
I1
tp8140
a(I1064
I1
tp8141
aa(lp8142
(I3
I1
tp8143
a(I4
I1
tp8144
a(I30
I1
tp8145
a(I1064
I1
tp8146
aa(lp8147
(I3
I1
tp8148
a(I13
I1
tp8149
a(I350
I1
tp8150
a(I1064
I1
tp8151
aa(lp8152
(I3
I1
tp8153
a(I153
I1
tp8154
a(I251
I1
tp8155
a(I443
I1
tp8156
a(I840
I1
tp8157
aa(lp8158
(I13
I1
tp8159
a(I19
I1
tp8160
a(I100
I1
tp8161
a(I121
I1
tp8162
a(I364
I1
tp8163
aa(lp8164
(I3
I1
tp8165
a(I11
I1
tp8166
a(I15
I1
tp8167
a(I18
I1
tp8168
a(I1065
I1
tp8169
aa(lp8170
(I3
I1
tp8171
a(I20
I1
tp8172
a(I1066
I1
tp8173
a(I1067
I1
tp8174
aa(lp8175
(I3
I1
tp8176
a(I83
I1
tp8177
a(I1066
I1
tp8178
a(I1067
I1
tp8179
aa(lp8180
(I4
I1
tp8181
a(I9
I1
tp8182
a(I188
I1
tp8183
a(I269
I1
tp8184
aa(lp8185
(I2
I1
tp8186
a(I26
I1
tp8187
a(I74
I1
tp8188
a(I141
I1
tp8189
a(I269
I1
tp8190
a(I282
I1
tp8191
aa(lp8192
(I13
I1
tp8193
a(I58
I1
tp8194
a(I100
I1
tp8195
a(I121
I1
tp8196
a(I364
I1
tp8197
aa(lp8198
(I13
I1
tp8199
a(I100
I1
tp8200
a(I121
I1
tp8201
a(I364
I1
tp8202
a(I938
I1
tp8203
aa(lp8204
(I1068
I1
tp8205
a(I1069
I1
tp8206
a(I1070
I1
tp8207
aa(lp8208
(I31
I1
tp8209
a(I625
I1
tp8210
aa(lp8211
(I207
I1
tp8212
a(I655
I1
tp8213
aa(lp8214
(I207
I1
tp8215
a(I516
I1
tp8216
a(I1071
I1
tp8217
aa(lp8218
(I207
I1
tp8219
a(I516
I1
tp8220
a(I948
I1
tp8221
aa(lp8222
(I9
I1
tp8223
a(I83
I1
tp8224
a(I188
I1
tp8225
a(I497
I1
tp8226
aa(lp8227
(I3
I1
tp8228
a(I20
I1
tp8229
a(I867
I1
tp8230
a(I1072
I1
tp8231
a(I1073
I1
tp8232
aa(lp8233
(I3
I1
tp8234
a(I20
I1
tp8235
a(I56
I1
tp8236
a(I186
I1
tp8237
a(I1072
I1
tp8238
aa(lp8239
(I51
I1
tp8240
a(I216
I1
tp8241
a(I288
I1
tp8242
a(I730
I1
tp8243
a(I1066
I1
tp8244
a(I1067
I1
tp8245
a(I1074
I1
tp8246
aa(lp8247
(I51
I1
tp8248
a(I216
I1
tp8249
a(I288
I1
tp8250
a(I550
I1
tp8251
a(I1066
I1
tp8252
a(I1067
I1
tp8253
a(I1074
I1
tp8254
aa(lp8255
(I51
I1
tp8256
a(I216
I1
tp8257
a(I288
I1
tp8258
a(I1066
I1
tp8259
a(I1067
I1
tp8260
a(I1074
I1
tp8261
a(I1075
I1
tp8262
aa(lp8263
(I51
I1
tp8264
a(I216
I1
tp8265
a(I1066
I1
tp8266
a(I1067
I1
tp8267
a(I1074
I1
tp8268
a(I1076
I1
tp8269
aa(lp8270
(I51
I1
tp8271
a(I216
I1
tp8272
a(I288
I1
tp8273
a(I1066
I1
tp8274
a(I1067
I1
tp8275
a(I1074
I1
tp8276
a(I1077
I1
tp8277
aa(lp8278
(I51
I1
tp8279
a(I216
I1
tp8280
a(I288
I1
tp8281
a(I1066
I1
tp8282
a(I1067
I1
tp8283
a(I1074
I1
tp8284
a(I1078
I1
tp8285
aa(lp8286
(I51
I1
tp8287
a(I216
I1
tp8288
a(I288
I1
tp8289
a(I1066
I1
tp8290
a(I1067
I1
tp8291
a(I1074
I1
tp8292
a(I1079
I1
tp8293
aa(lp8294
(I51
I1
tp8295
a(I216
I1
tp8296
a(I288
I1
tp8297
a(I1066
I1
tp8298
a(I1067
I1
tp8299
a(I1074
I1
tp8300
a(I1080
I1
tp8301
aa(lp8302
(I51
I1
tp8303
a(I216
I1
tp8304
a(I288
I1
tp8305
a(I1066
I1
tp8306
a(I1067
I1
tp8307
a(I1074
I1
tp8308
a(I1081
I1
tp8309
aa(lp8310
(I51
I1
tp8311
a(I216
I1
tp8312
a(I288
I1
tp8313
a(I1066
I1
tp8314
a(I1067
I1
tp8315
a(I1074
I1
tp8316
a(I1082
I1
tp8317
aa(lp8318
(I4
I1
tp8319
a(I207
I1
tp8320
a(I269
I1
tp8321
aa(lp8322
(I4
I1
tp8323
a(I269
I1
tp8324
a(I1083
I1
tp8325
aa(lp8326
(I4
I1
tp8327
a(I269
I1
tp8328
a(I291
I1
tp8329
a(I331
I1
tp8330
a(I1084
I1
tp8331
aa(lp8332
(I2
I1
tp8333
a(I269
I1
tp8334
a(I291
I1
tp8335
aa(lp8336
(I2
I1
tp8337
a(I129
I1
tp8338
a(I266
I1
tp8339
a(I291
I1
tp8340
aa(lp8341
(I2
I1
tp8342
a(I9
I1
tp8343
a(I129
I1
tp8344
a(I188
I1
tp8345
a(I266
I1
tp8346
aa(lp8347
(I2
I1
tp8348
a(I9
I1
tp8349
a(I188
I1
tp8350
a(I955
I1
tp8351
aa(lp8352
(I0
I1
tp8353
a(I13
I1
tp8354
a(I389
I1
tp8355
a(I651
I1
tp8356
aa(lp8357
(I3
I1
tp8358
a(I4
I1
tp8359
a(I15
I1
tp8360
a(I26
I1
tp8361
a(I56
I1
tp8362
a(I67
I1
tp8363
a(I258
I1
tp8364
a(I333
I1
tp8365
a(I1085
I1
tp8366
aa(lp8367
(I3
I1
tp8368
a(I4
I1
tp8369
a(I625
I1
tp8370
aa(lp8371
(I18
I1
tp8372
a(I21
I1
tp8373
a(I216
I1
tp8374
a(I1086
I1
tp8375
a(I1087
I1
tp8376
aa(lp8377
(I18
I1
tp8378
a(I20
I1
tp8379
a(I216
I1
tp8380
a(I1086
I1
tp8381
a(I1087
I1
tp8382
aa(lp8383
(I15
I1
tp8384
a(I18
I1
tp8385
a(I69
I1
tp8386
a(I216
I1
tp8387
a(I1086
I1
tp8388
a(I1087
I1
tp8389
aa(lp8390
(I4
I1
tp8391
a(I13
I1
tp8392
a(I207
I1
tp8393
a(I654
I1
tp8394
a(I655
I1
tp8395
aa(lp8396
(I24
I1
tp8397
a(I207
I1
tp8398
a(I675
I1
tp8399
a(I950
I1
tp8400
aa(lp8401
(I4
I1
tp8402
a(I24
I1
tp8403
a(I207
I1
tp8404
a(I675
I1
tp8405
aa(lp8406
(I244
I1
tp8407
a(I626
I1
tp8408
a(I700
I1
tp8409
a(I1088
I1
tp8410
aa(lp8411
(I2
I1
tp8412
a(I322
I1
tp8413
a(I472
I1
tp8414
aa(lp8415
(I4
I1
tp8416
a(I739
I1
tp8417
a(I1089
I1
tp8418
aa(lp8419
(I25
I1
tp8420
a(I216
I1
tp8421
a(I288
I1
tp8422
a(I537
I1
tp8423
a(I550
I1
tp8424
a(I658
I1
tp8425
a(I1072
I1
tp8426
aa(lp8427
(I3
I1
tp8428
a(I13
I1
tp8429
a(I216
I1
tp8430
a(I288
I1
tp8431
a(I367
I1
tp8432
a(I443
I1
tp8433
a(I550
I1
tp8434
a(I1065
I1
tp8435
a(I1067
I1
tp8436
a(I1090
I1
tp8437
aa(lp8438
(I51
I1
tp8439
a(I216
I1
tp8440
a(I288
I1
tp8441
a(I550
I1
tp8442
a(I1066
I1
tp8443
a(I1067
I1
tp8444
a(I1074
I1
tp8445
a(I1091
I1
tp8446
aa(lp8447
(I4
I1
tp8448
a(I11
I1
tp8449
a(I194
I1
tp8450
aa(lp8451
(I43
I1
tp8452
a(I104
I1
tp8453
a(I269
I1
tp8454
aa(lp8455
(I4
I1
tp8456
a(I153
I1
tp8457
a(I267
I1
tp8458
a(I291
I1
tp8459
a(I1092
I1
tp8460
aa(lp8461
(I21
I1
tp8462
a(I269
I1
tp8463
a(I270
I1
tp8464
aa(lp8465
(I20
I1
tp8466
a(I269
I1
tp8467
a(I270
I1
tp8468
aa(lp8469
(I23
I1
tp8470
a(I269
I1
tp8471
a(I270
I1
tp8472
aa(lp8473
(I2
I1
tp8474
a(I13
I1
tp8475
a(I269
I1
tp8476
a(I933
I1
tp8477
aa(lp8478
(I64
I1
tp8479
a(I67
I1
tp8480
a(I128
I1
tp8481
a(I188
I1
tp8482
a(I276
I1
tp8483
a(I288
I1
tp8484
a(I550
I1
tp8485
a(I567
I1
tp8486
aa(lp8487
(I2
I1
tp8488
a(I270
I1
tp8489
a(I955
I1
tp8490
aa(lp8491
(I2
I1
tp8492
a(I9
I1
tp8493
a(I188
I1
tp8494
a(I269
I1
tp8495
aa(lp8496
(I0
I1
tp8497
a(I67
I1
tp8498
a(I423
I1
tp8499
a(I651
I1
tp8500
aa(lp8501
(I2
I1
tp8502
a(I3
I1
tp8503
a(I249
I1
tp8504
aa(lp8505
(I3
I1
tp8506
a(I4
I1
tp8507
a(I249
I1
tp8508
aa(lp8509
(I2
I1
tp8510
a(I3
I1
tp8511
a(I18
I1
tp8512
a(I289
I1
tp8513
aa(lp8514
(I4
I1
tp8515
a(I13
I1
tp8516
a(I41
I1
tp8517
a(I655
I1
tp8518
a(I844
I1
tp8519
aa(lp8520
(I2
I1
tp8521
a(I207
I1
tp8522
a(I1064
I1
tp8523
aa(lp8524
(I4
I1
tp8525
a(I145
I1
tp8526
a(I626
I1
tp8527
a(I1093
I1
tp8528
aa(lp8529
(I4
I1
tp8530
a(I36
I1
tp8531
a(I266
I1
tp8532
aa(lp8533
(I4
I1
tp8534
a(I32
I1
tp8535
a(I67
I1
tp8536
a(I194
I1
tp8537
aa(lp8538
(I4
I1
tp8539
a(I23
I1
tp8540
a(I67
I1
tp8541
a(I194
I1
tp8542
aa(lp8543
(I4
I1
tp8544
a(I64
I1
tp8545
a(I383
I1
tp8546
a(I536
I1
tp8547
a(I656
I1
tp8548
a(I774
I1
tp8549
a(I1094
I1
tp8550
aa(lp8551
(I4
I1
tp8552
a(I43
I1
tp8553
a(I269
I1
tp8554
aa(lp8555
(I2
I1
tp8556
a(I43
I1
tp8557
a(I269
I1
tp8558
aa(lp8559
(I13
I1
tp8560
a(I207
I1
tp8561
a(I269
I1
tp8562
a(I270
I1
tp8563
a(I293
I1
tp8564
a(I294
I1
tp8565
aa(lp8566
(I2
I1
tp8567
a(I11
I1
tp8568
a(I21
I1
tp8569
a(I207
I1
tp8570
a(I216
I1
tp8571
a(I269
I1
tp8572
aa(lp8573
(I20
I1
tp8574
a(I270
I1
tp8575
a(I955
I1
tp8576
aa(lp8577
(I21
I1
tp8578
a(I270
I1
tp8579
a(I955
I1
tp8580
aa(lp8581
(I23
I1
tp8582
a(I270
I1
tp8583
a(I955
I1
tp8584
aa(lp8585
(I2
I1
tp8586
a(I276
I1
tp8587
a(I279
I1
tp8588
aa(lp8589
(I4
I1
tp8590
a(I11
I1
tp8591
a(I276
I1
tp8592
aa(lp8593
(I2
I1
tp8594
a(I289
I1
tp8595
a(I778
I1
tp8596
aa(lp8597
(I2
I1
tp8598
a(I3
I1
tp8599
a(I145
I1
tp8600
a(I516
I1
tp8601
aa(lp8602
(I3
I1
tp8603
a(I4
I1
tp8604
a(I145
I1
tp8605
a(I516
I1
tp8606
aa(lp8607
(I4
I1
tp8608
a(I536
I1
tp8609
aa(lp8610
(I2
I1
tp8611
a(I19
I1
tp8612
a(I20
I1
tp8613
a(I276
I1
tp8614
a(I289
I1
tp8615
a(I660
I1
tp8616
aa(lp8617
(I2
I1
tp8618
a(I3
I1
tp8619
a(I61
I1
tp8620
a(I145
I1
tp8621
aa(lp8622
(I3
I1
tp8623
a(I145
I1
tp8624
a(I653
I1
tp8625
a(I1089
I1
tp8626
aa(lp8627
(I20
I1
tp8628
a(I55
I1
tp8629
a(I423
I1
tp8630
a(I663
I1
tp8631
a(I858
I1
tp8632
aa(lp8633
(I3
I1
tp8634
a(I4
I1
tp8635
a(I61
I1
tp8636
a(I194
I1
tp8637
aa(lp8638
(I2
I1
tp8639
a(I11
I1
tp8640
a(I145
I1
tp8641
a(I207
I1
tp8642
a(I367
I1
tp8643
aa(lp8644
(I24
I1
tp8645
a(I36
I1
tp8646
a(I208
I1
tp8647
a(I377
I1
tp8648
a(I897
I1
tp8649
a(I902
I1
tp8650
aa(lp8651
(I0
I1
tp8652
a(I28
I1
tp8653
a(I223
I1
tp8654
a(I251
I1
tp8655
a(I950
I1
tp8656
aa(lp8657
(I3
I1
tp8658
a(I13
I1
tp8659
a(I24
I1
tp8660
a(I157
I1
tp8661
a(I177
I1
tp8662
a(I207
I1
tp8663
a(I950
I1
tp8664
aa(lp8665
(I36
I1
tp8666
a(I66
I1
tp8667
a(I377
I1
tp8668
a(I897
I1
tp8669
a(I902
I1
tp8670
aa(lp8671
(I24
I1
tp8672
a(I207
I1
tp8673
a(I208
I1
tp8674
a(I377
I1
tp8675
a(I897
I1
tp8676
a(I902
I1
tp8677
aa(lp8678
(I36
I1
tp8679
a(I66
I1
tp8680
a(I182
I1
tp8681
a(I377
I1
tp8682
a(I897
I1
tp8683
a(I902
I1
tp8684
aa(lp8685
(I14
I1
tp8686
a(I19
I1
tp8687
a(I55
I1
tp8688
a(I223
I1
tp8689
a(I950
I1
tp8690
a(I1023
I1
tp8691
aa(lp8692
(I41
I1
tp8693
a(I105
I1
tp8694
a(I377
I1
tp8695
a(I897
I1
tp8696
a(I902
I1
tp8697
aa(lp8698
(I201
I1
tp8699
a(I202
I1
tp8700
a(I207
I1
tp8701
a(I377
I1
tp8702
a(I897
I1
tp8703
a(I902
I1
tp8704
aa(lp8705
(I193
I1
tp8706
a(I207
I1
tp8707
a(I377
I1
tp8708
a(I897
I1
tp8709
a(I902
I1
tp8710
aa(lp8711
(I19
I1
tp8712
a(I23
I1
tp8713
a(I55
I1
tp8714
a(I170
I1
tp8715
a(I207
I1
tp8716
a(I377
I1
tp8717
a(I897
I1
tp8718
a(I902
I1
tp8719
aa(lp8720
(I182
I1
tp8721
a(I377
I1
tp8722
a(I897
I1
tp8723
a(I902
I1
tp8724
a(I935
I1
tp8725
aa(lp8726
(I23
I1
tp8727
a(I170
I1
tp8728
a(I377
I1
tp8729
a(I536
I1
tp8730
a(I897
I1
tp8731
a(I902
I1
tp8732
a(I942
I1
tp8733
aa(lp8734
(I170
I1
tp8735
a(I377
I1
tp8736
a(I536
I1
tp8737
a(I897
I1
tp8738
a(I902
I1
tp8739
a(I942
I1
tp8740
aa(lp8741
(I0
I1
tp8742
a(I148
I1
tp8743
a(I950
I1
tp8744
a(I1095
I1
tp8745
aa(lp8746
(I2
I1
tp8747
a(I13
I1
tp8748
a(I19
I1
tp8749
a(I20
I1
tp8750
a(I55
I1
tp8751
a(I273
I1
tp8752
a(I307
I1
tp8753
a(I497
I1
tp8754
aa(lp8755
(I36
I1
tp8756
a(I201
I1
tp8757
a(I377
I1
tp8758
a(I897
I1
tp8759
a(I902
I1
tp8760
aa(lp8761
(I21
I1
tp8762
a(I193
I1
tp8763
a(I207
I1
tp8764
a(I377
I1
tp8765
a(I897
I1
tp8766
a(I902
I1
tp8767
aa(lp8768
(I20
I1
tp8769
a(I193
I1
tp8770
a(I207
I1
tp8771
a(I377
I1
tp8772
a(I897
I1
tp8773
a(I902
I1
tp8774
aa(lp8775
(I23
I1
tp8776
a(I193
I1
tp8777
a(I207
I1
tp8778
a(I377
I1
tp8779
a(I897
I1
tp8780
a(I902
I1
tp8781
aa(lp8782
(I3
I1
tp8783
a(I170
I1
tp8784
a(I377
I1
tp8785
a(I897
I1
tp8786
a(I902
I1
tp8787
aa(lp8788
(I3
I1
tp8789
a(I182
I1
tp8790
a(I183
I1
tp8791
aa(lp8792
(I3
I1
tp8793
a(I201
I1
tp8794
a(I377
I1
tp8795
a(I897
I1
tp8796
a(I902
I1
tp8797
a(I930
I1
tp8798
aa(lp8799
(I3
I1
tp8800
a(I21
I1
tp8801
a(I170
I1
tp8802
a(I216
I1
tp8803
a(I377
I1
tp8804
a(I897
I1
tp8805
a(I902
I1
tp8806
aa(lp8807
(I3
I1
tp8808
a(I20
I1
tp8809
a(I170
I1
tp8810
a(I216
I1
tp8811
a(I377
I1
tp8812
a(I897
I1
tp8813
a(I902
I1
tp8814
aa(lp8815
(I3
I1
tp8816
a(I23
I1
tp8817
a(I170
I1
tp8818
a(I216
I1
tp8819
a(I377
I1
tp8820
a(I897
I1
tp8821
a(I902
I1
tp8822
aa(lp8823
(I3
I1
tp8824
a(I21
I1
tp8825
a(I182
I1
tp8826
a(I183
I1
tp8827
a(I216
I1
tp8828
aa(lp8829
(I3
I1
tp8830
a(I20
I1
tp8831
a(I182
I1
tp8832
a(I183
I1
tp8833
a(I216
I1
tp8834
aa(lp8835
(I15
I1
tp8836
a(I182
I1
tp8837
a(I183
I1
tp8838
a(I216
I1
tp8839
a(I1096
I1
tp8840
aa(lp8841
(I3
I1
tp8842
a(I23
I1
tp8843
a(I182
I1
tp8844
a(I183
I1
tp8845
a(I216
I1
tp8846
aa(lp8847
(I53
I1
tp8848
a(I915
I1
tp8849
a(I1097
I1
tp8850
aa(lp8851
(I4
I1
tp8852
a(I31
I1
tp8853
a(I59
I1
tp8854
a(I62
I1
tp8855
aa(lp8856
(I3
I1
tp8857
a(I18
I1
tp8858
a(I56
I1
tp8859
a(I93
I1
tp8860
a(I265
I1
tp8861
aa(lp8862
(I4
I1
tp8863
a(I187
I1
tp8864
a(I274
I1
tp8865
aa(lp8866
(I69
I1
tp8867
a(I187
I1
tp8868
aa(lp8869
(I4
I1
tp8870
a(I184
I1
tp8871
a(I186
I1
tp8872
a(I187
I1
tp8873
aa(lp8874
(I4
I1
tp8875
a(I45
I1
tp8876
a(I59
I1
tp8877
aa(lp8878
(I4
I1
tp8879
a(I13
I1
tp8880
a(I185
I1
tp8881
a(I211
I1
tp8882
a(I423
I1
tp8883
a(I1098
I1
tp8884
aa(lp8885
(I4
I1
tp8886
a(I29
I1
tp8887
a(I98
I1
tp8888
aa(lp8889
(I4
I1
tp8890
a(I29
I1
tp8891
a(I45
I1
tp8892
aa(lp8893
(I3
I1
tp8894
a(I4
I1
tp8895
a(I45
I1
tp8896
a(I198
I1
tp8897
aa(lp8898
(I4
I1
tp8899
a(I20
I1
tp8900
a(I29
I1
tp8901
aa(lp8902
(I4
I1
tp8903
a(I21
I1
tp8904
a(I29
I1
tp8905
aa(lp8906
(I4
I1
tp8907
a(I29
I1
tp8908
a(I875
I1
tp8909
aa(lp8910
(I4
I1
tp8911
a(I29
I1
tp8912
a(I469
I1
tp8913
a(I770
I1
tp8914
aa(lp8915
(I4
I1
tp8916
a(I23
I1
tp8917
a(I29
I1
tp8918
aa(lp8919
(I11
I1
tp8920
a(I59
I1
tp8921
a(I105
I1
tp8922
a(I170
I1
tp8923
a(I192
I1
tp8924
a(I469
I1
tp8925
aa(lp8926
(I4
I1
tp8927
a(I11
I1
tp8928
a(I15
I1
tp8929
a(I21
I1
tp8930
a(I29
I1
tp8931
a(I1099
I1
tp8932
aa(lp8933
(I20
I1
tp8934
a(I26
I1
tp8935
a(I41
I1
tp8936
a(I43
I1
tp8937
a(I59
I1
tp8938
a(I62
I1
tp8939
a(I105
I1
tp8940
a(I193
I1
tp8941
aa(lp8942
(I21
I1
tp8943
a(I41
I1
tp8944
a(I105
I1
tp8945
a(I760
I1
tp8946
aa(lp8947
(I59
I1
tp8948
a(I170
I1
tp8949
a(I171
I1
tp8950
a(I469
I1
tp8951
a(I1100
I1
tp8952
aa(lp8953
(I4
I1
tp8954
a(I11
I1
tp8955
a(I15
I1
tp8956
a(I20
I1
tp8957
a(I29
I1
tp8958
a(I1099
I1
tp8959
aa(lp8960
(I29
I1
tp8961
a(I32
I1
tp8962
a(I423
I1
tp8963
a(I1101
I1
tp8964
aa(lp8965
(I19
I1
tp8966
a(I23
I1
tp8967
a(I29
I1
tp8968
a(I203
I1
tp8969
aa(lp8970
(I4
I1
tp8971
a(I13
I1
tp8972
a(I15
I1
tp8973
a(I29
I1
tp8974
a(I34
I1
tp8975
a(I35
I1
tp8976
a(I203
I1
tp8977
a(I464
I1
tp8978
aa(lp8979
(I170
I1
tp8980
a(I1021
I1
tp8981
a(I1065
I1
tp8982
aa(lp8983
(I20
I1
tp8984
a(I41
I1
tp8985
a(I59
I1
tp8986
a(I105
I1
tp8987
a(I723
I1
tp8988
a(I893
I1
tp8989
aa(lp8990
(I23
I1
tp8991
a(I29
I1
tp8992
a(I203
I1
tp8993
aa(lp8994
(I13
I1
tp8995
a(I59
I1
tp8996
a(I170
I1
tp8997
a(I193
I1
tp8998
a(I1065
I1
tp8999
aa(lp9000
(I55
I1
tp9001
a(I59
I1
tp9002
a(I170
I1
tp9003
a(I423
I1
tp9004
aa(lp9005
(I11
I1
tp9006
a(I50
I1
tp9007
a(I170
I1
tp9008
a(I1065
I1
tp9009
a(I1102
I1
tp9010
aa(lp9011
(I0
I1
tp9012
a(I20
I1
tp9013
a(I55
I1
tp9014
a(I59
I1
tp9015
a(I170
I1
tp9016
aa(lp9017
(I0
I1
tp9018
a(I21
I1
tp9019
a(I55
I1
tp9020
a(I59
I1
tp9021
a(I170
I1
tp9022
aa(lp9023
(I0
I1
tp9024
a(I15
I1
tp9025
a(I55
I1
tp9026
a(I59
I1
tp9027
a(I69
I1
tp9028
a(I170
I1
tp9029
aa(lp9030
(I50
I1
tp9031
a(I59
I1
tp9032
a(I83
I1
tp9033
a(I170
I1
tp9034
a(I372
I1
tp9035
a(I1065
I1
tp9036
aa(lp9037
(I20
I1
tp9038
a(I50
I1
tp9039
a(I170
I1
tp9040
a(I423
I1
tp9041
a(I1021
I1
tp9042
a(I1065
I1
tp9043
aa(lp9044
(I50
I1
tp9045
a(I59
I1
tp9046
a(I83
I1
tp9047
a(I170
I1
tp9048
a(I372
I1
tp9049
a(I1065
I1
tp9050
a(I1103
I1
tp9051
aa(lp9052
(I21
I1
tp9053
a(I55
I1
tp9054
a(I59
I1
tp9055
a(I723
I1
tp9056
a(I893
I1
tp9057
a(I1104
I1
tp9058
aa(lp9059
(I20
I1
tp9060
a(I55
I1
tp9061
a(I59
I1
tp9062
a(I723
I1
tp9063
a(I893
I1
tp9064
a(I1104
I1
tp9065
aa(lp9066
(I23
I1
tp9067
a(I55
I1
tp9068
a(I59
I1
tp9069
a(I723
I1
tp9070
a(I893
I1
tp9071
a(I1104
I1
tp9072
aa(lp9073
(I13
I1
tp9074
a(I83
I1
tp9075
a(I1103
I1
tp9076
a(I1105
I1
tp9077
aa(lp9078
(I50
I1
tp9079
a(I218
I1
tp9080
a(I897
I1
tp9081
a(I1106
I1
tp9082
aa(lp9083
(I36
I1
tp9084
a(I148
I1
tp9085
aa(lp9086
(I36
I1
tp9087
a(I897
I1
tp9088
a(I1106
I1
tp9089
aa(lp9090
(I61
I1
tp9091
a(I223
I1
tp9092
a(I897
I1
tp9093
a(I1106
I1
tp9094
aa(lp9095
(I23
I1
tp9096
a(I897
I1
tp9097
a(I976
I1
tp9098
a(I1106
I1
tp9099
aa(lp9100
(I897
I1
tp9101
a(I976
I1
tp9102
a(I1106
I1
tp9103
aa(lp9104
(I143
I1
tp9105
a(I464
I1
tp9106
a(I897
I1
tp9107
a(I1106
I1
tp9108
aa(lp9109
(I60
I1
tp9110
a(I61
I1
tp9111
a(I63
I1
tp9112
a(I897
I1
tp9113
a(I1028
I1
tp9114
a(I1106
I1
tp9115
aa(lp9116
(I193
I1
tp9117
a(I897
I1
tp9118
a(I1106
I1
tp9119
aa(lp9120
(I55
I1
tp9121
a(I537
I1
tp9122
a(I897
I1
tp9123
a(I1028
I1
tp9124
a(I1106
I1
tp9125
aa(lp9126
(I23
I1
tp9127
a(I162
I1
tp9128
a(I735
I1
tp9129
a(I897
I1
tp9130
a(I1106
I1
tp9131
aa(lp9132
(I32
I1
tp9133
a(I897
I1
tp9134
a(I1028
I1
tp9135
a(I1106
I1
tp9136
aa(lp9137
(I3
I1
tp9138
a(I897
I1
tp9139
a(I1043
I1
tp9140
a(I1106
I1
tp9141
aa(lp9142
(I0
I2
tp9143
a(I44
I1
tp9144
a(I55
I1
tp9145
a(I60
I1
tp9146
a(I652
I1
tp9147
a(I1107
I1
tp9148
aa(lp9149
(I199
I1
tp9150
a(I897
I1
tp9151
a(I1043
I1
tp9152
a(I1106
I1
tp9153
aa(lp9154
(I34
I1
tp9155
a(I35
I1
tp9156
a(I321
I1
tp9157
a(I897
I1
tp9158
a(I1043
I2
tp9159
a(I1106
I1
tp9160
a(I1108
I1
tp9161
aa(lp9162
(I3
I1
tp9163
a(I11
I1
tp9164
a(I897
I1
tp9165
a(I1043
I1
tp9166
a(I1106
I1
tp9167
aa(lp9168
(I162
I1
tp9169
a(I240
I2
tp9170
a(I735
I1
tp9171
a(I833
I1
tp9172
a(I848
I2
tp9173
a(I897
I1
tp9174
a(I1019
I1
tp9175
a(I1043
I2
tp9176
a(I1106
I1
tp9177
a(I1109
I1
tp9178
aa(lp9179
(I9
I1
tp9180
a(I13
I1
tp9181
a(I188
I1
tp9182
a(I223
I1
tp9183
a(I950
I1
tp9184
a(I995
I1
tp9185
a(I1035
I1
tp9186
a(I1110
I1
tp9187
aa(lp9188
(I61
I1
tp9189
a(I145
I1
tp9190
a(I614
I1
tp9191
a(I950
I1
tp9192
aa(lp9193
(I2
I1
tp9194
a(I976
I1
tp9195
a(I985
I1
tp9196
aa(lp9197
(I11
I1
tp9198
a(I274
I1
tp9199
a(I976
I1
tp9200
a(I985
I1
tp9201
aa(lp9202
(I1111
I1
tp9203
a(I1112
I1
tp9204
aa(lp9205
(I20
I1
tp9206
a(I976
I1
tp9207
a(I985
I1
tp9208
aa(lp9209
(I21
I1
tp9210
a(I976
I1
tp9211
a(I985
I1
tp9212
aa(lp9213
(I23
I1
tp9214
a(I976
I1
tp9215
a(I985
I1
tp9216
aa(lp9217
(I13
I1
tp9218
a(I67
I1
tp9219
a(I128
I1
tp9220
a(I235
I1
tp9221
a(I535
I1
tp9222
a(I1113
I1
tp9223
aa(lp9224
(I9
I1
tp9225
a(I235
I1
tp9226
a(I306
I1
tp9227
a(I962
I1
tp9228
a(I1113
I1
tp9229
aa(lp9230
(I1114
I1
tp9231
a(I1115
I1
tp9232
a(I1116
I1
tp9233
aa(lp9234
(I13
I1
tp9235
a(I64
I2
tp9236
a(I81
I1
tp9237
a(I529
I1
tp9238
a(I1117
I1
tp9239
a(I1118
I1
tp9240
a(I1119
I1
tp9241
a(I1120
I1
tp9242
a(I1121
I1
tp9243
a(I1122
I1
tp9244
a(I1123
I1
tp9245
a(I1124
I1
tp9246
aa(lp9247
(I13
I1
tp9248
a(I64
I2
tp9249
a(I1119
I1
tp9250
a(I1120
I1
tp9251
a(I1121
I1
tp9252
a(I1122
I1
tp9253
a(I1123
I1
tp9254
a(I1125
I1
tp9255
a(I1126
I1
tp9256
a(I1127
I1
tp9257
a(I1128
I1
tp9258
aa(lp9259
(I13
I1
tp9260
a(I64
I2
tp9261
a(I1117
I1
tp9262
a(I1120
I1
tp9263
a(I1121
I1
tp9264
a(I1122
I1
tp9265
a(I1123
I1
tp9266
a(I1124
I1
tp9267
a(I1127
I1
tp9268
a(I1128
I1
tp9269
a(I1129
I1
tp9270
a(I1130
I1
tp9271
aa(lp9272
(I128
I1
tp9273
a(I515
I1
tp9274
a(I977
I1
tp9275
a(I1131
I1
tp9276
a(I1132
I1
tp9277
aa(lp9278
(I36
I1
tp9279
a(I923
I1
tp9280
a(I1133
I1
tp9281
a(I1134
I1
tp9282
aa(lp9283
(I3
I1
tp9284
a(I985
I1
tp9285
a(I1135
I1
tp9286
aa(lp9287
(I515
I1
tp9288
a(I803
I1
tp9289
a(I976
I1
tp9290
a(I1131
I1
tp9291
a(I1132
I1
tp9292
aa(lp9293
(I11
I1
tp9294
a(I923
I1
tp9295
a(I976
I1
tp9296
a(I1133
I1
tp9297
a(I1134
I1
tp9298
aa(lp9299
(I60
I1
tp9300
a(I61
I1
tp9301
a(I63
I1
tp9302
a(I923
I1
tp9303
a(I1028
I1
tp9304
a(I1133
I1
tp9305
a(I1134
I1
tp9306
aa(lp9307
(I3
I1
tp9308
a(I21
I1
tp9309
a(I216
I1
tp9310
a(I949
I1
tp9311
a(I985
I1
tp9312
a(I1135
I1
tp9313
aa(lp9314
(I3
I1
tp9315
a(I20
I1
tp9316
a(I216
I1
tp9317
a(I949
I1
tp9318
a(I985
I1
tp9319
a(I1135
I1
tp9320
aa(lp9321
(I3
I1
tp9322
a(I23
I1
tp9323
a(I216
I1
tp9324
a(I949
I1
tp9325
a(I985
I1
tp9326
a(I1135
I1
tp9327
aa(lp9328
(I128
I1
tp9329
a(I923
I1
tp9330
a(I1133
I1
tp9331
a(I1134
I1
tp9332
a(I1136
I1
tp9333
aa(lp9334
(I56
I1
tp9335
a(I99
I1
tp9336
a(I173
I1
tp9337
a(I923
I1
tp9338
a(I1028
I1
tp9339
a(I1045
I1
tp9340
a(I1133
I1
tp9341
a(I1134
I1
tp9342
aa(lp9343
(I19
I1
tp9344
a(I21
I1
tp9345
a(I976
I1
tp9346
a(I985
I1
tp9347
aa(lp9348
(I19
I1
tp9349
a(I20
I1
tp9350
a(I976
I1
tp9351
a(I985
I1
tp9352
aa(lp9353
(I21
I1
tp9354
a(I985
I1
tp9355
a(I1028
I1
tp9356
aa(lp9357
(I20
I1
tp9358
a(I985
I1
tp9359
a(I1028
I1
tp9360
aa(lp9361
(I15
I1
tp9362
a(I69
I1
tp9363
a(I985
I1
tp9364
a(I1028
I1
tp9365
aa(lp9366
(I23
I1
tp9367
a(I985
I1
tp9368
a(I1028
I1
tp9369
aa(lp9370
(I60
I1
tp9371
a(I61
I1
tp9372
a(I63
I1
tp9373
a(I985
I1
tp9374
a(I1028
I1
tp9375
aasS'obj'
p9376
g0
(cgensim.models.tfidfmodel
TfidfModel
p9377
g2
Ntp9378
Rp9379
(dp9380
S'normalize'
p9381
I01
sS'idfs'
p9382
(dp9383
I0
F4.072627800087398
sI1
F9.596189756144412
sI2
F2.8017738897943043
sI3
F3.057030945036379
sI4
F2.937978273392616
sI5
F6.426264754702098
sI6
F10.596189756144412
sI7
F8.011227255423254
sI8
F8.59618975614441
sI9
F5.136758137507114
sI10
F7.788834834086806
sI11
F4.011227255423254
sI12
F10.596189756144412
sI13
F2.421264073643732
sI14
F9.011227255423254
sI15
F4.868269301581211
sI16
F7.274261661257048
sI17
F9.596189756144412
sI18
F6.20387233336565
sI19
F4.104336659814735
sI20
F3.2386377515263267
sI21
F4.057030945036379
sI22
F9.596189756144412
sI23
F3.7506997052000357
sI24
F6.20387233336565
sI25
F6.274261661257048
sI26
F6.274261661257048
sI27
F10.596189756144412
sI28
F6.895750038003318
sI29
F4.487665299366242
sI30
F6.426264754702098
sI31
F7.136758137507114
sI32
F7.011227255423254
sI33
F6.689299160535892
sI34
F5.59618975614441
sI35
F5.641993445757535
sI36
F5.041600904466773
sI37
F7.426264754702098
sI38
F9.596189756144412
sI39
F9.011227255423254
sI40
F7.788834834086806
sI41
F4.386736390515461
sI42
F8.011227255423254
sI43
F5.689299160535892
sI44
F8.274261661257048
sI45
F5.952333566369686
sI46
F9.596189756144412
sI47
F9.011227255423254
sI48
F10.596189756144412
sI49
F9.011227255423254
sI50
F5.041600904466773
sI51
F6.20387233336565
sI52
F10.596189756144412
sI53
F8.59618975614441
sI54
F5.011227255423255
sI55
F4.713546706782569
sI56
F5.169925001442312
sI57
F7.596189756144411
sI58
F5.641993445757535
sI59
F4.057030945036379
sI60
F5.895750038003318
sI61
F5.104336659814736
sI62
F5.386736390515461
sI63
F6.011227255423254
sI64
F5.895750038003318
sI65
F7.426264754702098
sI66
F6.426264754702098
sI67
F4.689299160535892
sI68
F10.596189756144412
sI69
F6.426264754702098
sI70
F7.274261661257048
sI71
F6.895750038003318
sI72
F9.596189756144412
sI73
F6.508726914894072
sI74
F7.596189756144411
sI75
F6.426264754702098
sI76
F9.596189756144412
sI77
F7.788834834086806
sI78
F9.596189756144412
sI79
F9.596189756144412
sI80
F9.011227255423254
sI81
F9.011227255423254
sI82
F7.274261661257048
sI83
F6.072627800087398
sI84
F7.596189756144411
sI85
F6.426264754702098
sI86
F9.011227255423254
sI87
F9.011227255423254
sI88
F7.596189756144411
sI89
F6.136758137507114
sI90
F9.011227255423254
sI91
F9.596189756144412
sI92
F9.596189756144412
sI93
F6.508726914894072
sI94
F10.596189756144412
sI95
F7.596189756144411
sI96
F10.596189756144412
sI97
F7.596189756144411
sI98
F9.596189756144412
sI99
F9.596189756144412
sI100
F8.011227255423254
sI101
F7.788834834086806
sI102
F8.59618975614441
sI103
F9.011227255423254
sI104
F8.011227255423254
sI105
F4.310787537282162
sI106
F10.596189756144412
sI107
F8.011227255423254
sI108
F10.596189756144412
sI109
F10.596189756144412
sI110
F7.788834834086806
sI111
F7.274261661257048
sI112
F9.596189756144412
sI113
F10.596189756144412
sI114
F8.59618975614441
sI115
F8.011227255423254
sI116
F5.59618975614441
sI117
F10.596189756144412
sI118
F8.274261661257048
sI119
F10.596189756144412
sI120
F7.274261661257048
sI121
F7.426264754702098
sI122
F10.596189756144412
sI123
F10.596189756144412
sI124
F9.011227255423254
sI125
F7.596189756144411
sI126
F10.596189756144412
sI127
F8.274261661257048
sI128
F5.508726914894071
sI129
F6.689299160535892
sI130
F10.596189756144412
sI131
F10.596189756144412
sI132
F6.788834834086806
sI133
F7.596189756144411
sI134
F10.596189756144412
sI135
F10.596189756144412
sI136
F7.788834834086806
sI137
F8.59618975614441
sI138
F9.011227255423254
sI139
F8.274261661257048
sI140
F9.011227255423254
sI141
F7.011227255423254
sI142
F9.596189756144412
sI143
F7.274261661257048
sI144
F9.596189756144412
sI145
F5.59618975614441
sI146
F8.011227255423254
sI147
F8.011227255423254
sI148
F6.895750038003318
sI149
F9.596189756144412
sI150
F9.011227255423254
sI151
F10.596189756144412
sI152
F10.596189756144412
sI153
F6.20387233336565
sI154
F9.596189756144412
sI155
F10.596189756144412
sI156
F10.596189756144412
sI157
F6.072627800087398
sI158
F7.788834834086806
sI159
F6.426264754702098
sI160
F10.596189756144412
sI161
F7.011227255423254
sI162
F6.426264754702098
sI163
F6.895750038003318
sI164
F6.072627800087398
sI165
F10.596189756144412
sI166
F10.596189756144412
sI167
F6.689299160535892
sI168
F10.596189756144412
sI169
F10.596189756144412
sI170
F5.274261661257048
sI171
F9.596189756144412
sI172
F7.011227255423254
sI173
F9.011227255423254
sI174
F6.59618975614441
sI175
F10.596189756144412
sI176
F9.011227255423254
sI177
F8.59618975614441
sI178
F6.788834834086806
sI179
F10.596189756144412
sI180
F10.596189756144412
sI181
F9.596189756144412
sI182
F5.386736390515461
sI183
F6.59618975614441
sI184
F6.274261661257048
sI185
F8.274261661257048
sI186
F5.952333566369686
sI187
F7.136758137507114
sI188
F5.104336659814736
sI189
F10.596189756144412
sI190
F8.011227255423254
sI191
F5.641993445757535
sI192
F7.426264754702098
sI193
F4.952333566369686
sI194
F8.011227255423254
sI195
F7.011227255423254
sI196
F10.596189756144412
sI197
F9.011227255423254
sI198
F8.011227255423254
sI199
F8.274261661257048
sI200
F9.011227255423254
sI201
F7.788834834086806
sI202
F9.011227255423254
sI203
F7.136758137507114
sI204
F9.011227255423254
sI205
F9.011227255423254
sI206
F9.596189756144412
sI207
F4.59618975614441
sI208
F8.011227255423254
sI209
F7.274261661257048
sI210
F10.596189756144412
sI211
F8.011227255423254
sI212
F10.596189756144412
sI213
F10.596189756144412
sI214
F7.596189756144411
sI215
F8.59618975614441
sI216
F3.508726914894071
sI217
F6.348262242700825
sI218
F8.011227255423254
sI219
F7.426264754702098
sI220
F10.596189756144412
sI221
F9.596189756144412
sI222
F10.596189756144412
sI223
F5.041600904466773
sI224
F10.596189756144412
sI225
F7.136758137507114
sI226
F8.59618975614441
sI227
F8.59618975614441
sI228
F7.136758137507114
sI229
F10.596189756144412
sI230
F7.011227255423254
sI231
F8.274261661257048
sI232
F9.596189756144412
sI233
F9.596189756144412
sI234
F9.596189756144412
sI235
F9.011227255423254
sI236
F10.596189756144412
sI237
F8.274261661257048
sI238
F8.274261661257048
sI239
F9.011227255423254
sI240
F7.788834834086806
sI241
F10.596189756144412
sI242
F10.596189756144412
sI243
F10.596189756144412
sI244
F6.788834834086806
sI245
F10.596189756144412
sI246
F9.011227255423254
sI247
F10.596189756144412
sI248
F10.596189756144412
sI249
F7.596189756144411
sI250
F8.59618975614441
sI251
F6.788834834086806
sI252
F8.59618975614441
sI253
F10.596189756144412
sI254
F9.011227255423254
sI255
F6.59618975614441
sI256
F10.596189756144412
sI257
F8.59618975614441
sI258
F7.788834834086806
sI259
F7.011227255423254
sI260
F6.426264754702098
sI261
F9.596189756144412
sI262
F10.596189756144412
sI263
F9.596189756144412
sI264
F10.596189756144412
sI265
F9.596189756144412
sI266
F5.738208761016839
sI267
F8.59618975614441
sI268
F9.596189756144412
sI269
F6.072627800087398
sI270
F7.274261661257048
sI271
F9.596189756144412
sI272
F6.508726914894072
sI273
F6.20387233336565
sI274
F6.508726914894072
sI275
F8.274261661257048
sI276
F5.689299160535892
sI277
F8.59618975614441
sI278
F10.596189756144412
sI279
F8.274261661257048
sI280
F9.011227255423254
sI281
F10.596189756144412
sI282
F5.841302253980943
sI283
F10.596189756144412
sI284
F9.596189756144412
sI285
F6.788834834086806
sI286
F8.274261661257048
sI287
F7.274261661257048
sI288
F5.952333566369686
sI289
F6.426264754702098
sI290
F10.596189756144412
sI291
F8.011227255423254
sI292
F6.011227255423254
sI293
F6.508726914894072
sI294
F6.20387233336565
sI295
F8.59618975614441
sI296
F8.011227255423254
sI297
F8.011227255423254
sI298
F6.426264754702098
sI299
F7.596189756144411
sI300
F8.274261661257048
sI301
F9.011227255423254
sI302
F8.274261661257048
sI303
F9.011227255423254
sI304
F10.596189756144412
sI305
F10.596189756144412
sI306
F7.011227255423254
sI307
F6.508726914894072
sI308
F10.596189756144412
sI309
F10.596189756144412
sI310
F10.596189756144412
sI311
F10.596189756144412
sI312
F9.596189756144412
sI313
F8.011227255423254
sI314
F9.596189756144412
sI315
F8.274261661257048
sI316
F7.274261661257048
sI317
F10.596189756144412
sI318
F8.59618975614441
sI319
F10.596189756144412
sI320
F9.596189756144412
sI321
F7.596189756144411
sI322
F7.788834834086806
sI323
F9.596189756144412
sI324
F10.596189756144412
sI325
F10.596189756144412
sI326
F10.596189756144412
sI327
F10.596189756144412
sI328
F10.596189756144412
sI329
F10.596189756144412
sI330
F9.596189756144412
sI331
F9.596189756144412
sI332
F9.596189756144412
sI333
F7.426264754702098
sI334
F9.011227255423254
sI335
F10.596189756144412
sI336
F10.596189756144412
sI337
F10.596189756144412
sI338
F10.596189756144412
sI339
F10.596189756144412
sI340
F4.713546706782569
sI341
F10.596189756144412
sI342
F10.596189756144412
sI343
F10.596189756144412
sI344
F5.508726914894071
sI345
F10.596189756144412
sI346
F10.596189756144412
sI347
F9.596189756144412
sI348
F10.596189756144412
sI349
F10.596189756144412
sI350
F8.011227255423254
sI351
F10.596189756144412
sI352
F10.596189756144412
sI353
F10.596189756144412
sI354
F6.426264754702098
sI355
F10.596189756144412
sI356
F9.011227255423254
sI357
F9.011227255423254
sI358
F9.596189756144412
sI359
F8.59618975614441
sI360
F9.011227255423254
sI361
F10.596189756144412
sI362
F10.596189756144412
sI363
F10.596189756144412
sI364
F7.596189756144411
sI365
F9.011227255423254
sI366
F9.011227255423254
sI367
F7.011227255423254
sI368
F10.596189756144412
sI369
F9.596189756144412
sI370
F9.596189756144412
sI371
F10.596189756144412
sI372
F7.426264754702098
sI373
F9.596189756144412
sI374
F9.011227255423254
sI375
F8.59618975614441
sI376
F10.596189756144412
sI377
F5.310787537282162
sI378
F8.59618975614441
sI379
F7.788834834086806
sI380
F8.274261661257048
sI381
F9.011227255423254
sI382
F9.596189756144412
sI383
F7.011227255423254
sI384
F8.274261661257048
sI385
F10.596189756144412
sI386
F10.596189756144412
sI387
F8.59618975614441
sI388
F9.011227255423254
sI389
F9.596189756144412
sI390
F9.596189756144412
sI391
F9.011227255423254
sI392
F10.596189756144412
sI393
F10.596189756144412
sI394
F9.596189756144412
sI395
F7.788834834086806
sI396
F10.596189756144412
sI397
F10.596189756144412
sI398
F9.596189756144412
sI399
F9.596189756144412
sI400
F9.011227255423254
sI401
F10.596189756144412
sI402
F8.59618975614441
sI403
F8.59618975614441
sI404
F7.426264754702098
sI405
F10.596189756144412
sI406
F10.596189756144412
sI407
F10.596189756144412
sI408
F9.596189756144412
sI409
F10.596189756144412
sI410
F9.596189756144412
sI411
F10.596189756144412
sI412
F10.596189756144412
sI413
F8.59618975614441
sI414
F10.596189756144412
sI415
F10.596189756144412
sI416
F9.596189756144412
sI417
F9.596189756144412
sI418
F10.596189756144412
sI419
F6.689299160535892
sI420
F10.596189756144412
sI421
F10.596189756144412
sI422
F10.596189756144412
sI423
F6.426264754702098
sI424
F10.596189756144412
sI425
F10.596189756144412
sI426
F9.596189756144412
sI427
F10.596189756144412
sI428
F9.596189756144412
sI429
F7.596189756144411
sI430
F8.59618975614441
sI431
F9.596189756144412
sI432
F8.274261661257048
sI433
F10.596189756144412
sI434
F10.596189756144412
sI435
F10.596189756144412
sI436
F10.596189756144412
sI437
F10.596189756144412
sI438
F10.596189756144412
sI439
F10.596189756144412
sI440
F9.011227255423254
sI441
F10.596189756144412
sI442
F10.596189756144412
sI443
F9.011227255423254
sI444
F10.596189756144412
sI445
F10.596189756144412
sI446
F10.596189756144412
sI447
F10.596189756144412
sI448
F9.596189756144412
sI449
F10.596189756144412
sI450
F10.596189756144412
sI451
F9.596189756144412
sI452
F10.596189756144412
sI453
F10.596189756144412
sI454
F10.596189756144412
sI455
F9.596189756144412
sI456
F9.596189756144412
sI457
F10.596189756144412
sI458
F10.596189756144412
sI459
F10.596189756144412
sI460
F9.596189756144412
sI461
F10.596189756144412
sI462
F7.274261661257048
sI463
F6.59618975614441
sI464
F6.426264754702098
sI465
F9.596189756144412
sI466
F10.596189756144412
sI467
F10.596189756144412
sI468
F8.274261661257048
sI469
F6.788834834086806
sI470
F9.596189756144412
sI471
F10.596189756144412
sI472
F9.011227255423254
sI473
F10.596189756144412
sI474
F10.596189756144412
sI475
F10.596189756144412
sI476
F10.596189756144412
sI477
F10.596189756144412
sI478
F10.596189756144412
sI479
F10.596189756144412
sI480
F10.596189756144412
sI481
F10.596189756144412
sI482
F10.596189756144412
sI483
F10.596189756144412
sI484
F7.788834834086806
sI485
F10.596189756144412
sI486
F10.596189756144412
sI487
F7.788834834086806
sI488
F6.689299160535892
sI489
F9.596189756144412
sI490
F10.596189756144412
sI491
F9.596189756144412
sI492
F8.011227255423254
sI493
F9.596189756144412
sI494
F10.596189756144412
sI495
F10.596189756144412
sI496
F9.596189756144412
sI497
F6.274261661257048
sI498
F9.596189756144412
sI499
F9.596189756144412
sI500
F10.596189756144412
sI501
F10.596189756144412
sI502
F10.596189756144412
sI503
F10.596189756144412
sI504
F9.596189756144412
sI505
F7.596189756144411
sI506
F8.59618975614441
sI507
F8.59618975614441
sI508
F8.59618975614441
sI509
F10.596189756144412
sI510
F10.596189756144412
sI511
F9.011227255423254
sI512
F7.788834834086806
sI513
F7.426264754702098
sI514
F7.274261661257048
sI515
F4.256339753259786
sI516
F7.426264754702098
sI517
F10.596189756144412
sI518
F9.596189756144412
sI519
F9.596189756144412
sI520
F10.596189756144412
sI521
F6.895750038003318
sI522
F10.596189756144412
sI523
F10.596189756144412
sI524
F9.596189756144412
sI525
F9.596189756144412
sI526
F6.011227255423254
sI527
F5.895750038003318
sI528
F9.596189756144412
sI529
F9.596189756144412
sI530
F10.596189756144412
sI531
F10.596189756144412
sI532
F9.011227255423254
sI533
F10.596189756144412
sI534
F9.011227255423254
sI535
F9.011227255423254
sI536
F8.011227255423254
sI537
F8.59618975614441
sI538
F7.426264754702098
sI539
F9.011227255423254
sI540
F10.596189756144412
sI541
F8.59618975614441
sI542
F10.596189756144412
sI543
F10.596189756144412
sI544
F7.136758137507114
sI545
F9.596189756144412
sI546
F7.596189756144411
sI547
F10.596189756144412
sI548
F9.596189756144412
sI549
F10.596189756144412
sI550
F7.426264754702098
sI551
F10.596189756144412
sI552
F10.596189756144412
sI553
F10.596189756144412
sI554
F10.596189756144412
sI555
F8.274261661257048
sI556
F10.596189756144412
sI557
F8.59618975614441
sI558
F10.596189756144412
sI559
F10.596189756144412
sI560
F10.596189756144412
sI561
F10.596189756144412
sI562
F10.596189756144412
sI563
F10.596189756144412
sI564
F10.596189756144412
sI565
F8.59618975614441
sI566
F10.596189756144412
sI567
F7.788834834086806
sI568
F10.596189756144412
sI569
F10.596189756144412
sI570
F10.596189756144412
sI571
F10.596189756144412
sI572
F10.596189756144412
sI573
F8.274261661257048
sI574
F10.596189756144412
sI575
F9.011227255423254
sI576
F9.596189756144412
sI577
F9.011227255423254
sI578
F7.011227255423254
sI579
F9.596189756144412
sI580
F9.596189756144412
sI581
F10.596189756144412
sI582
F10.596189756144412
sI583
F10.596189756144412
sI584
F9.596189756144412
sI585
F10.596189756144412
sI586
F10.596189756144412
sI587
F10.596189756144412
sI588
F10.596189756144412
sI589
F10.596189756144412
sI590
F10.596189756144412
sI591
F9.011227255423254
sI592
F8.59618975614441
sI593
F10.596189756144412
sI594
F10.596189756144412
sI595
F10.596189756144412
sI596
F10.596189756144412
sI597
F9.596189756144412
sI598
F10.596189756144412
sI599
F10.596189756144412
sI600
F10.596189756144412
sI601
F9.596189756144412
sI602
F10.596189756144412
sI603
F7.788834834086806
sI604
F10.596189756144412
sI605
F10.596189756144412
sI606
F9.596189756144412
sI607
F10.596189756144412
sI608
F10.596189756144412
sI609
F10.596189756144412
sI610
F10.596189756144412
sI611
F10.596189756144412
sI612
F10.596189756144412
sI613
F9.596189756144412
sI614
F8.59618975614441
sI615
F9.596189756144412
sI616
F7.596189756144411
sI617
F10.596189756144412
sI618
F10.596189756144412
sI619
F10.596189756144412
sI620
F10.596189756144412
sI621
F9.596189756144412
sI622
F10.596189756144412
sI623
F7.596189756144411
sI624
F6.788834834086806
sI625
F7.426264754702098
sI626
F6.426264754702098
sI627
F9.596189756144412
sI628
F10.596189756144412
sI629
F10.596189756144412
sI630
F10.596189756144412
sI631
F10.596189756144412
sI632
F10.596189756144412
sI633
F10.596189756144412
sI634
F10.596189756144412
sI635
F9.596189756144412
sI636
F10.596189756144412
sI637
F9.596189756144412
sI638
F10.596189756144412
sI639
F10.596189756144412
sI640
F10.596189756144412
sI641
F10.596189756144412
sI642
F9.011227255423254
sI643
F9.596189756144412
sI644
F8.59618975614441
sI645
F8.59618975614441
sI646
F10.596189756144412
sI647
F10.596189756144412
sI648
F6.011227255423254
sI649
F10.596189756144412
sI650
F10.596189756144412
sI651
F9.011227255423254
sI652
F7.788834834086806
sI653
F9.011227255423254
sI654
F7.426264754702098
sI655
F7.274261661257048
sI656
F9.011227255423254
sI657
F9.596189756144412
sI658
F7.274261661257048
sI659
F10.596189756144412
sI660
F7.426264754702098
sI661
F9.011227255423254
sI662
F8.59618975614441
sI663
F7.788834834086806
sI664
F7.788834834086806
sI665
F8.59618975614441
sI666
F9.011227255423254
sI667
F8.59618975614441
sI668
F10.596189756144412
sI669
F10.596189756144412
sI670
F10.596189756144412
sI671
F9.596189756144412
sI672
F7.788834834086806
sI673
F10.596189756144412
sI674
F10.596189756144412
sI675
F8.274261661257048
sI676
F10.596189756144412
sI677
F10.596189756144412
sI678
F8.59618975614441
sI679
F8.274261661257048
sI680
F8.011227255423254
sI681
F10.596189756144412
sI682
F10.596189756144412
sI683
F9.011227255423254
sI684
F9.011227255423254
sI685
F10.596189756144412
sI686
F10.596189756144412
sI687
F9.011227255423254
sI688
F9.596189756144412
sI689
F10.596189756144412
sI690
F10.596189756144412
sI691
F10.596189756144412
sI692
F10.596189756144412
sI693
F10.596189756144412
sI694
F10.596189756144412
sI695
F9.011227255423254
sI696
F9.011227255423254
sI697
F9.596189756144412
sI698
F9.596189756144412
sI699
F9.011227255423254
sI700
F7.274261661257048
sI701
F10.596189756144412
sI702
F9.596189756144412
sI703
F9.596189756144412
sI704
F10.596189756144412
sI705
F7.011227255423254
sI706
F9.596189756144412
sI707
F9.011227255423254
sI708
F6.895750038003318
sI709
F7.596189756144411
sI710
F8.011227255423254
sI711
F8.59618975614441
sI712
F10.596189756144412
sI713
F10.596189756144412
sI714
F9.011227255423254
sI715
F7.596189756144411
sI716
F10.596189756144412
sI717
F8.274261661257048
sI718
F9.596189756144412
sI719
F10.596189756144412
sI720
F9.011227255423254
sI721
F10.596189756144412
sI722
F10.596189756144412
sI723
F8.274261661257048
sI724
F10.596189756144412
sI725
F7.426264754702098
sI726
F10.596189756144412
sI727
F10.596189756144412
sI728
F9.596189756144412
sI729
F10.596189756144412
sI730
F9.596189756144412
sI731
F10.596189756144412
sI732
F10.596189756144412
sI733
F10.596189756144412
sI734
F10.596189756144412
sI735
F8.011227255423254
sI736
F10.596189756144412
sI737
F10.596189756144412
sI738
F7.011227255423254
sI739
F8.274261661257048
sI740
F8.011227255423254
sI741
F10.596189756144412
sI742
F9.596189756144412
sI743
F10.596189756144412
sI744
F10.596189756144412
sI745
F10.596189756144412
sI746
F10.596189756144412
sI747
F10.596189756144412
sI748
F8.59618975614441
sI749
F8.011227255423254
sI750
F10.596189756144412
sI751
F10.596189756144412
sI752
F9.011227255423254
sI753
F9.011227255423254
sI754
F9.596189756144412
sI755
F8.274261661257048
sI756
F10.596189756144412
sI757
F10.596189756144412
sI758
F9.596189756144412
sI759
F8.274261661257048
sI760
F7.596189756144411
sI761
F8.59618975614441
sI762
F8.59618975614441
sI763
F8.59618975614441
sI764
F8.59618975614441
sI765
F10.596189756144412
sI766
F10.596189756144412
sI767
F10.596189756144412
sI768
F10.596189756144412
sI769
F10.596189756144412
sI770
F9.011227255423254
sI771
F10.596189756144412
sI772
F9.011227255423254
sI773
F8.011227255423254
sI774
F9.596189756144412
sI775
F10.596189756144412
sI776
F6.136758137507114
sI777
F6.59618975614441
sI778
F8.59618975614441
sI779
F10.596189756144412
sI780
F10.596189756144412
sI781
F10.596189756144412
sI782
F10.596189756144412
sI783
F10.596189756144412
sI784
F9.596189756144412
sI785
F10.596189756144412
sI786
F10.596189756144412
sI787
F10.596189756144412
sI788
F6.59618975614441
sI789
F6.788834834086806
sI790
F9.011227255423254
sI791
F9.011227255423254
sI792
F9.011227255423254
sI793
F10.596189756144412
sI794
F10.596189756144412
sI795
F8.274261661257048
sI796
F10.596189756144412
sI797
F8.274261661257048
sI798
F7.426264754702098
sI799
F10.596189756144412
sI800
F10.596189756144412
sI801
F10.596189756144412
sI802
F10.596189756144412
sI803
F8.59618975614441
sI804
F10.596189756144412
sI805
F10.596189756144412
sI806
F10.596189756144412
sI807
F10.596189756144412
sI808
F6.59618975614441
sI809
F9.011227255423254
sI810
F9.596189756144412
sI811
F9.596189756144412
sI812
F10.596189756144412
sI813
F6.348262242700825
sI814
F9.011227255423254
sI815
F9.596189756144412
sI816
F9.596189756144412
sI817
F8.59618975614441
sI818
F10.596189756144412
sI819
F9.596189756144412
sI820
F7.426264754702098
sI821
F10.596189756144412
sI822
F10.596189756144412
sI823
F10.596189756144412
sI824
F10.596189756144412
sI825
F10.596189756144412
sI826
F9.596189756144412
sI827
F8.011227255423254
sI828
F9.011227255423254
sI829
F9.011227255423254
sI830
F10.596189756144412
sI831
F9.596189756144412
sI832
F9.596189756144412
sI833
F7.788834834086806
sI834
F9.011227255423254
sI835
F10.596189756144412
sI836
F10.596189756144412
sI837
F7.274261661257048
sI838
F10.596189756144412
sI839
F9.596189756144412
sI840
F9.596189756144412
sI841
F10.596189756144412
sI842
F10.596189756144412
sI843
F10.596189756144412
sI844
F9.011227255423254
sI845
F9.596189756144412
sI846
F10.596189756144412
sI847
F10.596189756144412
sI848
F9.596189756144412
sI849
F10.596189756144412
sI850
F10.596189756144412
sI851
F10.596189756144412
sI852
F10.596189756144412
sI853
F9.596189756144412
sI854
F10.596189756144412
sI855
F10.596189756144412
sI856
F10.596189756144412
sI857
F9.596189756144412
sI858
F9.011227255423254
sI859
F10.596189756144412
sI860
F10.596189756144412
sI861
F10.596189756144412
sI862
F9.596189756144412
sI863
F10.596189756144412
sI864
F10.596189756144412
sI865
F10.596189756144412
sI866
F9.011227255423254
sI867
F9.011227255423254
sI868
F10.596189756144412
sI869
F9.011227255423254
sI870
F10.596189756144412
sI871
F10.596189756144412
sI872
F10.596189756144412
sI873
F10.596189756144412
sI874
F10.596189756144412
sI875
F9.596189756144412
sI876
F9.596189756144412
sI877
F8.59618975614441
sI878
F10.596189756144412
sI879
F10.596189756144412
sI880
F10.596189756144412
sI881
F10.596189756144412
sI882
F10.596189756144412
sI883
F10.596189756144412
sI884
F10.596189756144412
sI885
F10.596189756144412
sI886
F10.596189756144412
sI887
F10.596189756144412
sI888
F10.596189756144412
sI889
F9.011227255423254
sI890
F10.596189756144412
sI891
F8.59618975614441
sI892
F8.011227255423254
sI893
F8.011227255423254
sI894
F10.596189756144412
sI895
F9.011227255423254
sI896
F9.596189756144412
sI897
F4.788834834086806
sI898
F10.596189756144412
sI899
F10.596189756144412
sI900
F9.596189756144412
sI901
F9.011227255423254
sI902
F5.426264754702098
sI903
F5.841302253980943
sI904
F5.841302253980943
sI905
F9.011227255423254
sI906
F10.596189756144412
sI907
F9.596189756144412
sI908
F9.596189756144412
sI909
F9.011227255423254
sI910
F10.596189756144412
sI911
F9.596189756144412
sI912
F10.596189756144412
sI913
F10.596189756144412
sI914
F10.596189756144412
sI915
F9.596189756144412
sI916
F10.596189756144412
sI917
F10.596189756144412
sI918
F10.596189756144412
sI919
F10.596189756144412
sI920
F9.011227255423254
sI921
F9.596189756144412
sI922
F10.596189756144412
sI923
F8.011227255423254
sI924
F9.011227255423254
sI925
F10.596189756144412
sI926
F10.596189756144412
sI927
F7.136758137507114
sI928
F8.59618975614441
sI929
F10.596189756144412
sI930
F9.596189756144412
sI931
F8.011227255423254
sI932
F8.59618975614441
sI933
F9.011227255423254
sI934
F9.596189756144412
sI935
F9.596189756144412
sI936
F10.596189756144412
sI937
F10.596189756144412
sI938
F8.59618975614441
sI939
F9.596189756144412
sI940
F9.011227255423254
sI941
F9.596189756144412
sI942
F7.596189756144411
sI943
F10.596189756144412
sI944
F10.596189756144412
sI945
F10.596189756144412
sI946
F8.59618975614441
sI947
F10.596189756144412
sI948
F9.596189756144412
sI949
F8.59618975614441
sI950
F4.088395115945715
sI951
F10.596189756144412
sI952
F10.596189756144412
sI953
F10.596189756144412
sI954
F10.596189756144412
sI955
F8.011227255423254
sI956
F10.596189756144412
sI957
F9.596189756144412
sI958
F10.596189756144412
sI959
F10.596189756144412
sI960
F10.596189756144412
sI961
F10.596189756144412
sI962
F9.596189756144412
sI963
F9.596189756144412
sI964
F10.596189756144412
sI965
F10.596189756144412
sI966
F10.596189756144412
sI967
F10.596189756144412
sI968
F10.596189756144412
sI969
F10.596189756144412
sI970
F10.596189756144412
sI971
F10.596189756144412
sI972
F10.596189756144412
sI973
F10.596189756144412
sI974
F10.596189756144412
sI975
F10.596189756144412
sI976
F6.072627800087398
sI977
F9.596189756144412
sI978
F10.596189756144412
sI979
F10.596189756144412
sI980
F9.596189756144412
sI981
F10.596189756144412
sI982
F9.596189756144412
sI983
F10.596189756144412
sI984
F10.596189756144412
sI985
F6.072627800087398
sI986
F9.596189756144412
sI987
F10.596189756144412
sI988
F10.596189756144412
sI989
F10.596189756144412
sI990
F10.596189756144412
sI991
F10.596189756144412
sI992
F10.596189756144412
sI993
F10.596189756144412
sI994
F10.596189756144412
sI995
F8.274261661257048
sI996
F10.596189756144412
sI997
F10.596189756144412
sI998
F10.596189756144412
sI999
F9.596189756144412
sI1000
F9.596189756144412
sI1001
F10.596189756144412
sI1002
F10.596189756144412
sI1003
F9.596189756144412
sI1004
F10.596189756144412
sI1005
F10.596189756144412
sI1006
F5.788834834086806
sI1007
F7.788834834086806
sI1008
F5.895750038003318
sI1009
F8.274261661257048
sI1010
F10.596189756144412
sI1011
F10.596189756144412
sI1012
F7.426264754702098
sI1013
F8.274261661257048
sI1014
F9.596189756144412
sI1015
F9.596189756144412
sI1016
F10.596189756144412
sI1017
F10.596189756144412
sI1018
F7.788834834086806
sI1019
F9.011227255423254
sI1020
F10.596189756144412
sI1021
F9.011227255423254
sI1022
F10.596189756144412
sI1023
F9.596189756144412
sI1024
F10.596189756144412
sI1025
F10.596189756144412
sI1026
F9.596189756144412
sI1027
F10.596189756144412
sI1028
F5.59618975614441
sI1029
F10.596189756144412
sI1030
F10.596189756144412
sI1031
F7.426264754702098
sI1032
F9.596189756144412
sI1033
F10.596189756144412
sI1034
F10.596189756144412
sI1035
F9.596189756144412
sI1036
F9.011227255423254
sI1037
F10.596189756144412
sI1038
F7.788834834086806
sI1039
F10.596189756144412
sI1040
F9.596189756144412
sI1041
F9.011227255423254
sI1042
F9.596189756144412
sI1043
F8.011227255423254
sI1044
F10.596189756144412
sI1045
F9.596189756144412
sI1046
F10.596189756144412
sI1047
F10.596189756144412
sI1048
F10.596189756144412
sI1049
F10.596189756144412
sI1050
F10.596189756144412
sI1051
F8.59618975614441
sI1052
F10.596189756144412
sI1053
F10.596189756144412
sI1054
F9.596189756144412
sI1055
F10.596189756144412
sI1056
F9.011227255423254
sI1057
F8.59618975614441
sI1058
F10.596189756144412
sI1059
F10.596189756144412
sI1060
F10.596189756144412
sI1061
F9.011227255423254
sI1062
F10.596189756144412
sI1063
F10.596189756144412
sI1064
F8.59618975614441
sI1065
F7.596189756144411
sI1066
F6.895750038003318
sI1067
F6.788834834086806
sI1068
F10.596189756144412
sI1069
F10.596189756144412
sI1070
F10.596189756144412
sI1071
F10.596189756144412
sI1072
F9.011227255423254
sI1073
F10.596189756144412
sI1074
F7.136758137507114
sI1075
F10.596189756144412
sI1076
F10.596189756144412
sI1077
F10.596189756144412
sI1078
F10.596189756144412
sI1079
F10.596189756144412
sI1080
F10.596189756144412
sI1081
F10.596189756144412
sI1082
F10.596189756144412
sI1083
F10.596189756144412
sI1084
F10.596189756144412
sI1085
F10.596189756144412
sI1086
F9.011227255423254
sI1087
F9.011227255423254
sI1088
F10.596189756144412
sI1089
F9.596189756144412
sI1090
F10.596189756144412
sI1091
F10.596189756144412
sI1092
F10.596189756144412
sI1093
F10.596189756144412
sI1094
F10.596189756144412
sI1095
F10.596189756144412
sI1096
F10.596189756144412
sI1097
F10.596189756144412
sI1098
F10.596189756144412
sI1099
F9.596189756144412
sI1100
F10.596189756144412
sI1101
F10.596189756144412
sI1102
F10.596189756144412
sI1103
F9.596189756144412
sI1104
F9.011227255423254
sI1105
F10.596189756144412
sI1106
F6.59618975614441
sI1107
F10.596189756144412
sI1108
F10.596189756144412
sI1109
F10.596189756144412
sI1110
F10.596189756144412
sI1111
F10.596189756144412
sI1112
F10.596189756144412
sI1113
F9.596189756144412
sI1114
F10.596189756144412
sI1115
F10.596189756144412
sI1116
F10.596189756144412
sI1117
F9.596189756144412
sI1118
F10.596189756144412
sI1119
F9.596189756144412
sI1120
F9.011227255423254
sI1121
F9.011227255423254
sI1122
F9.011227255423254
sI1123
F9.011227255423254
sI1124
F9.596189756144412
sI1125
F10.596189756144412
sI1126
F10.596189756144412
sI1127
F9.596189756144412
sI1128
F9.596189756144412
sI1129
F10.596189756144412
sI1130
F10.596189756144412
sI1131
F9.596189756144412
sI1132
F9.596189756144412
sI1133
F8.274261661257048
sI1134
F8.274261661257048
sI1135
F8.59618975614441
sI1136
F10.596189756144412
ssS'num_docs'
p9384
I1548
sS'num_nnz'
p9385
I7820
sS'dfs'
p9386
(dp9387
I0
I92
sI1
I2
sI2
I222
sI3
I186
sI4
I202
sI5
I18
sI6
I1
sI7
I6
sI8
I4
sI9
I44
sI10
I7
sI11
I96
sI12
I1
sI13
I289
sI14
I3
sI15
I53
sI16
I10
sI17
I2
sI18
I21
sI19
I90
sI20
I164
sI21
I93
sI22
I2
sI23
I115
sI24
I21
sI25
I20
sI26
I20
sI27
I1
sI28
I13
sI29
I69
sI30
I18
sI31
I11
sI32
I12
sI33
I15
sI34
I32
sI35
I31
sI36
I47
sI37
I9
sI38
I2
sI39
I3
sI40
I7
sI41
I74
sI42
I6
sI43
I30
sI44
I5
sI45
I25
sI46
I2
sI47
I3
sI48
I1
sI49
I3
sI50
I47
sI51
I21
sI52
I1
sI53
I4
sI54
I48
sI55
I59
sI56
I43
sI57
I8
sI58
I31
sI59
I93
sI60
I26
sI61
I45
sI62
I37
sI63
I24
sI64
I26
sI65
I9
sI66
I18
sI67
I60
sI68
I1
sI69
I18
sI70
I10
sI71
I13
sI72
I2
sI73
I17
sI74
I8
sI75
I18
sI76
I2
sI77
I7
sI78
I2
sI79
I2
sI80
I3
sI81
I3
sI82
I10
sI83
I23
sI84
I8
sI85
I18
sI86
I3
sI87
I3
sI88
I8
sI89
I22
sI90
I3
sI91
I2
sI92
I2
sI93
I17
sI94
I1
sI95
I8
sI96
I1
sI97
I8
sI98
I2
sI99
I2
sI100
I6
sI101
I7
sI102
I4
sI103
I3
sI104
I6
sI105
I78
sI106
I1
sI107
I6
sI108
I1
sI109
I1
sI110
I7
sI111
I10
sI112
I2
sI113
I1
sI114
I4
sI115
I6
sI116
I32
sI117
I1
sI118
I5
sI119
I1
sI120
I10
sI121
I9
sI122
I1
sI123
I1
sI124
I3
sI125
I8
sI126
I1
sI127
I5
sI128
I34
sI129
I15
sI130
I1
sI131
I1
sI132
I14
sI133
I8
sI134
I1
sI135
I1
sI136
I7
sI137
I4
sI138
I3
sI139
I5
sI140
I3
sI141
I12
sI142
I2
sI143
I10
sI144
I2
sI145
I32
sI146
I6
sI147
I6
sI148
I13
sI149
I2
sI150
I3
sI151
I1
sI152
I1
sI153
I21
sI154
I2
sI155
I1
sI156
I1
sI157
I23
sI158
I7
sI159
I18
sI160
I1
sI161
I12
sI162
I18
sI163
I13
sI164
I23
sI165
I1
sI166
I1
sI167
I15
sI168
I1
sI169
I1
sI170
I40
sI171
I2
sI172
I12
sI173
I3
sI174
I16
sI175
I1
sI176
I3
sI177
I4
sI178
I14
sI179
I1
sI180
I1
sI181
I2
sI182
I37
sI183
I16
sI184
I20
sI185
I5
sI186
I25
sI187
I11
sI188
I45
sI189
I1
sI190
I6
sI191
I31
sI192
I9
sI193
I50
sI194
I6
sI195
I12
sI196
I1
sI197
I3
sI198
I6
sI199
I5
sI200
I3
sI201
I7
sI202
I3
sI203
I11
sI204
I3
sI205
I3
sI206
I2
sI207
I64
sI208
I6
sI209
I10
sI210
I1
sI211
I6
sI212
I1
sI213
I1
sI214
I8
sI215
I4
sI216
I136
sI217
I19
sI218
I6
sI219
I9
sI220
I1
sI221
I2
sI222
I1
sI223
I47
sI224
I1
sI225
I11
sI226
I4
sI227
I4
sI228
I11
sI229
I1
sI230
I12
sI231
I5
sI232
I2
sI233
I2
sI234
I2
sI235
I3
sI236
I1
sI237
I5
sI238
I5
sI239
I3
sI240
I7
sI241
I1
sI242
I1
sI243
I1
sI244
I14
sI245
I1
sI246
I3
sI247
I1
sI248
I1
sI249
I8
sI250
I4
sI251
I14
sI252
I4
sI253
I1
sI254
I3
sI255
I16
sI256
I1
sI257
I4
sI258
I7
sI259
I12
sI260
I18
sI261
I2
sI262
I1
sI263
I2
sI264
I1
sI265
I2
sI266
I29
sI267
I4
sI268
I2
sI269
I23
sI270
I10
sI271
I2
sI272
I17
sI273
I21
sI274
I17
sI275
I5
sI276
I30
sI277
I4
sI278
I1
sI279
I5
sI280
I3
sI281
I1
sI282
I27
sI283
I1
sI284
I2
sI285
I14
sI286
I5
sI287
I10
sI288
I25
sI289
I18
sI290
I1
sI291
I6
sI292
I24
sI293
I17
sI294
I21
sI295
I4
sI296
I6
sI297
I6
sI298
I18
sI299
I8
sI300
I5
sI301
I3
sI302
I5
sI303
I3
sI304
I1
sI305
I1
sI306
I12
sI307
I17
sI308
I1
sI309
I1
sI310
I1
sI311
I1
sI312
I2
sI313
I6
sI314
I2
sI315
I5
sI316
I10
sI317
I1
sI318
I4
sI319
I1
sI320
I2
sI321
I8
sI322
I7
sI323
I2
sI324
I1
sI325
I1
sI326
I1
sI327
I1
sI328
I1
sI329
I1
sI330
I2
sI331
I2
sI332
I2
sI333
I9
sI334
I3
sI335
I1
sI336
I1
sI337
I1
sI338
I1
sI339
I1
sI340
I59
sI341
I1
sI342
I1
sI343
I1
sI344
I34
sI345
I1
sI346
I1
sI347
I2
sI348
I1
sI349
I1
sI350
I6
sI351
I1
sI352
I1
sI353
I1
sI354
I18
sI355
I1
sI356
I3
sI357
I3
sI358
I2
sI359
I4
sI360
I3
sI361
I1
sI362
I1
sI363
I1
sI364
I8
sI365
I3
sI366
I3
sI367
I12
sI368
I1
sI369
I2
sI370
I2
sI371
I1
sI372
I9
sI373
I2
sI374
I3
sI375
I4
sI376
I1
sI377
I39
sI378
I4
sI379
I7
sI380
I5
sI381
I3
sI382
I2
sI383
I12
sI384
I5
sI385
I1
sI386
I1
sI387
I4
sI388
I3
sI389
I2
sI390
I2
sI391
I3
sI392
I1
sI393
I1
sI394
I2
sI395
I7
sI396
I1
sI397
I1
sI398
I2
sI399
I2
sI400
I3
sI401
I1
sI402
I4
sI403
I4
sI404
I9
sI405
I1
sI406
I1
sI407
I1
sI408
I2
sI409
I1
sI410
I2
sI411
I1
sI412
I1
sI413
I4
sI414
I1
sI415
I1
sI416
I2
sI417
I2
sI418
I1
sI419
I15
sI420
I1
sI421
I1
sI422
I1
sI423
I18
sI424
I1
sI425
I1
sI426
I2
sI427
I1
sI428
I2
sI429
I8
sI430
I4
sI431
I2
sI432
I5
sI433
I1
sI434
I1
sI435
I1
sI436
I1
sI437
I1
sI438
I1
sI439
I1
sI440
I3
sI441
I1
sI442
I1
sI443
I3
sI444
I1
sI445
I1
sI446
I1
sI447
I1
sI448
I2
sI449
I1
sI450
I1
sI451
I2
sI452
I1
sI453
I1
sI454
I1
sI455
I2
sI456
I2
sI457
I1
sI458
I1
sI459
I1
sI460
I2
sI461
I1
sI462
I10
sI463
I16
sI464
I18
sI465
I2
sI466
I1
sI467
I1
sI468
I5
sI469
I14
sI470
I2
sI471
I1
sI472
I3
sI473
I1
sI474
I1
sI475
I1
sI476
I1
sI477
I1
sI478
I1
sI479
I1
sI480
I1
sI481
I1
sI482
I1
sI483
I1
sI484
I7
sI485
I1
sI486
I1
sI487
I7
sI488
I15
sI489
I2
sI490
I1
sI491
I2
sI492
I6
sI493
I2
sI494
I1
sI495
I1
sI496
I2
sI497
I20
sI498
I2
sI499
I2
sI500
I1
sI501
I1
sI502
I1
sI503
I1
sI504
I2
sI505
I8
sI506
I4
sI507
I4
sI508
I4
sI509
I1
sI510
I1
sI511
I3
sI512
I7
sI513
I9
sI514
I10
sI515
I81
sI516
I9
sI517
I1
sI518
I2
sI519
I2
sI520
I1
sI521
I13
sI522
I1
sI523
I1
sI524
I2
sI525
I2
sI526
I24
sI527
I26
sI528
I2
sI529
I2
sI530
I1
sI531
I1
sI532
I3
sI533
I1
sI534
I3
sI535
I3
sI536
I6
sI537
I4
sI538
I9
sI539
I3
sI540
I1
sI541
I4
sI542
I1
sI543
I1
sI544
I11
sI545
I2
sI546
I8
sI547
I1
sI548
I2
sI549
I1
sI550
I9
sI551
I1
sI552
I1
sI553
I1
sI554
I1
sI555
I5
sI556
I1
sI557
I4
sI558
I1
sI559
I1
sI560
I1
sI561
I1
sI562
I1
sI563
I1
sI564
I1
sI565
I4
sI566
I1
sI567
I7
sI568
I1
sI569
I1
sI570
I1
sI571
I1
sI572
I1
sI573
I5
sI574
I1
sI575
I3
sI576
I2
sI577
I3
sI578
I12
sI579
I2
sI580
I2
sI581
I1
sI582
I1
sI583
I1
sI584
I2
sI585
I1
sI586
I1
sI587
I1
sI588
I1
sI589
I1
sI590
I1
sI591
I3
sI592
I4
sI593
I1
sI594
I1
sI595
I1
sI596
I1
sI597
I2
sI598
I1
sI599
I1
sI600
I1
sI601
I2
sI602
I1
sI603
I7
sI604
I1
sI605
I1
sI606
I2
sI607
I1
sI608
I1
sI609
I1
sI610
I1
sI611
I1
sI612
I1
sI613
I2
sI614
I4
sI615
I2
sI616
I8
sI617
I1
sI618
I1
sI619
I1
sI620
I1
sI621
I2
sI622
I1
sI623
I8
sI624
I14
sI625
I9
sI626
I18
sI627
I2
sI628
I1
sI629
I1
sI630
I1
sI631
I1
sI632
I1
sI633
I1
sI634
I1
sI635
I2
sI636
I1
sI637
I2
sI638
I1
sI639
I1
sI640
I1
sI641
I1
sI642
I3
sI643
I2
sI644
I4
sI645
I4
sI646
I1
sI647
I1
sI648
I24
sI649
I1
sI650
I1
sI651
I3
sI652
I7
sI653
I3
sI654
I9
sI655
I10
sI656
I3
sI657
I2
sI658
I10
sI659
I1
sI660
I9
sI661
I3
sI662
I4
sI663
I7
sI664
I7
sI665
I4
sI666
I3
sI667
I4
sI668
I1
sI669
I1
sI670
I1
sI671
I2
sI672
I7
sI673
I1
sI674
I1
sI675
I5
sI676
I1
sI677
I1
sI678
I4
sI679
I5
sI680
I6
sI681
I1
sI682
I1
sI683
I3
sI684
I3
sI685
I1
sI686
I1
sI687
I3
sI688
I2
sI689
I1
sI690
I1
sI691
I1
sI692
I1
sI693
I1
sI694
I1
sI695
I3
sI696
I3
sI697
I2
sI698
I2
sI699
I3
sI700
I10
sI701
I1
sI702
I2
sI703
I2
sI704
I1
sI705
I12
sI706
I2
sI707
I3
sI708
I13
sI709
I8
sI710
I6
sI711
I4
sI712
I1
sI713
I1
sI714
I3
sI715
I8
sI716
I1
sI717
I5
sI718
I2
sI719
I1
sI720
I3
sI721
I1
sI722
I1
sI723
I5
sI724
I1
sI725
I9
sI726
I1
sI727
I1
sI728
I2
sI729
I1
sI730
I2
sI731
I1
sI732
I1
sI733
I1
sI734
I1
sI735
I6
sI736
I1
sI737
I1
sI738
I12
sI739
I5
sI740
I6
sI741
I1
sI742
I2
sI743
I1
sI744
I1
sI745
I1
sI746
I1
sI747
I1
sI748
I4
sI749
I6
sI750
I1
sI751
I1
sI752
I3
sI753
I3
sI754
I2
sI755
I5
sI756
I1
sI757
I1
sI758
I2
sI759
I5
sI760
I8
sI761
I4
sI762
I4
sI763
I4
sI764
I4
sI765
I1
sI766
I1
sI767
I1
sI768
I1
sI769
I1
sI770
I3
sI771
I1
sI772
I3
sI773
I6
sI774
I2
sI775
I1
sI776
I22
sI777
I16
sI778
I4
sI779
I1
sI780
I1
sI781
I1
sI782
I1
sI783
I1
sI784
I2
sI785
I1
sI786
I1
sI787
I1
sI788
I16
sI789
I14
sI790
I3
sI791
I3
sI792
I3
sI793
I1
sI794
I1
sI795
I5
sI796
I1
sI797
I5
sI798
I9
sI799
I1
sI800
I1
sI801
I1
sI802
I1
sI803
I4
sI804
I1
sI805
I1
sI806
I1
sI807
I1
sI808
I16
sI809
I3
sI810
I2
sI811
I2
sI812
I1
sI813
I19
sI814
I3
sI815
I2
sI816
I2
sI817
I4
sI818
I1
sI819
I2
sI820
I9
sI821
I1
sI822
I1
sI823
I1
sI824
I1
sI825
I1
sI826
I2
sI827
I6
sI828
I3
sI829
I3
sI830
I1
sI831
I2
sI832
I2
sI833
I7
sI834
I3
sI835
I1
sI836
I1
sI837
I10
sI838
I1
sI839
I2
sI840
I2
sI841
I1
sI842
I1
sI843
I1
sI844
I3
sI845
I2
sI846
I1
sI847
I1
sI848
I2
sI849
I1
sI850
I1
sI851
I1
sI852
I1
sI853
I2
sI854
I1
sI855
I1
sI856
I1
sI857
I2
sI858
I3
sI859
I1
sI860
I1
sI861
I1
sI862
I2
sI863
I1
sI864
I1
sI865
I1
sI866
I3
sI867
I3
sI868
I1
sI869
I3
sI870
I1
sI871
I1
sI872
I1
sI873
I1
sI874
I1
sI875
I2
sI876
I2
sI877
I4
sI878
I1
sI879
I1
sI880
I1
sI881
I1
sI882
I1
sI883
I1
sI884
I1
sI885
I1
sI886
I1
sI887
I1
sI888
I1
sI889
I3
sI890
I1
sI891
I4
sI892
I6
sI893
I6
sI894
I1
sI895
I3
sI896
I2
sI897
I56
sI898
I1
sI899
I1
sI900
I2
sI901
I3
sI902
I36
sI903
I27
sI904
I27
sI905
I3
sI906
I1
sI907
I2
sI908
I2
sI909
I3
sI910
I1
sI911
I2
sI912
I1
sI913
I1
sI914
I1
sI915
I2
sI916
I1
sI917
I1
sI918
I1
sI919
I1
sI920
I3
sI921
I2
sI922
I1
sI923
I6
sI924
I3
sI925
I1
sI926
I1
sI927
I11
sI928
I4
sI929
I1
sI930
I2
sI931
I6
sI932
I4
sI933
I3
sI934
I2
sI935
I2
sI936
I1
sI937
I1
sI938
I4
sI939
I2
sI940
I3
sI941
I2
sI942
I8
sI943
I1
sI944
I1
sI945
I1
sI946
I4
sI947
I1
sI948
I2
sI949
I4
sI950
I91
sI951
I1
sI952
I1
sI953
I1
sI954
I1
sI955
I6
sI956
I1
sI957
I2
sI958
I1
sI959
I1
sI960
I1
sI961
I1
sI962
I2
sI963
I2
sI964
I1
sI965
I1
sI966
I1
sI967
I1
sI968
I1
sI969
I1
sI970
I1
sI971
I1
sI972
I1
sI973
I1
sI974
I1
sI975
I1
sI976
I23
sI977
I2
sI978
I1
sI979
I1
sI980
I2
sI981
I1
sI982
I2
sI983
I1
sI984
I1
sI985
I23
sI986
I2
sI987
I1
sI988
I1
sI989
I1
sI990
I1
sI991
I1
sI992
I1
sI993
I1
sI994
I1
sI995
I5
sI996
I1
sI997
I1
sI998
I1
sI999
I2
sI1000
I2
sI1001
I1
sI1002
I1
sI1003
I2
sI1004
I1
sI1005
I1
sI1006
I28
sI1007
I7
sI1008
I26
sI1009
I5
sI1010
I1
sI1011
I1
sI1012
I9
sI1013
I5
sI1014
I2
sI1015
I2
sI1016
I1
sI1017
I1
sI1018
I7
sI1019
I3
sI1020
I1
sI1021
I3
sI1022
I1
sI1023
I2
sI1024
I1
sI1025
I1
sI1026
I2
sI1027
I1
sI1028
I32
sI1029
I1
sI1030
I1
sI1031
I9
sI1032
I2
sI1033
I1
sI1034
I1
sI1035
I2
sI1036
I3
sI1037
I1
sI1038
I7
sI1039
I1
sI1040
I2
sI1041
I3
sI1042
I2
sI1043
I6
sI1044
I1
sI1045
I2
sI1046
I1
sI1047
I1
sI1048
I1
sI1049
I1
sI1050
I1
sI1051
I4
sI1052
I1
sI1053
I1
sI1054
I2
sI1055
I1
sI1056
I3
sI1057
I4
sI1058
I1
sI1059
I1
sI1060
I1
sI1061
I3
sI1062
I1
sI1063
I1
sI1064
I4
sI1065
I8
sI1066
I13
sI1067
I14
sI1068
I1
sI1069
I1
sI1070
I1
sI1071
I1
sI1072
I3
sI1073
I1
sI1074
I11
sI1075
I1
sI1076
I1
sI1077
I1
sI1078
I1
sI1079
I1
sI1080
I1
sI1081
I1
sI1082
I1
sI1083
I1
sI1084
I1
sI1085
I1
sI1086
I3
sI1087
I3
sI1088
I1
sI1089
I2
sI1090
I1
sI1091
I1
sI1092
I1
sI1093
I1
sI1094
I1
sI1095
I1
sI1096
I1
sI1097
I1
sI1098
I1
sI1099
I2
sI1100
I1
sI1101
I1
sI1102
I1
sI1103
I2
sI1104
I3
sI1105
I1
sI1106
I16
sI1107
I1
sI1108
I1
sI1109
I1
sI1110
I1
sI1111
I1
sI1112
I1
sI1113
I2
sI1114
I1
sI1115
I1
sI1116
I1
sI1117
I2
sI1118
I1
sI1119
I2
sI1120
I3
sI1121
I3
sI1122
I3
sI1123
I3
sI1124
I2
sI1125
I1
sI1126
I1
sI1127
I2
sI1128
I2
sI1129
I1
sI1130
I1
sI1131
I2
sI1132
I2
sI1133
I5
sI1134
I5
sI1135
I4
sI1136
I1
ssS'id2word'
p9388
NsS'wglobal'
p9389
cgensim.models.tfidfmodel
df2idf
p9390
sS'wlocal'
p9391
cgensim.utils
identity
p9392
sbsS'chunksize'
p9393
NsS'metadata'
p9394
I00
sb.