ccopy_reg
_reconstructor
p0
(cgensim.corpora.dictionary
Dictionary
p1
c__builtin__
object
p2
Ntp3
Rp4
(dp5
S'num_docs'
p6
I1548
sS'token2id'
p7
(dp8
V\u8981
p9
I670
sV\u964d\u7ea7
p10
I664
sV\u65e0\u5361\u53d6\u6b3e
p11
I387
sV\u5220\u9664
p12
I250
sV\u5173\u6237
p13
I1095
sV\u901a\u8fc7
p14
I146
sV\u8bc1\u660e\u4e66
p15
I651
sV\u635f\u574f
p16
I115
sV\u3010
p17
I87
sV\u5f20\u6570
p18
I1085
sV\u7f16\u7801
p19
I874
sV\u6761\u4ef6
p20
I419
sV\u54a8\u8be2
p21
I500
sV\uff1a
p22
I299
sV\u2162
p23
I706
sV\u5212\u7b97
p24
I421
sV\u8f6c\u6362
p25
I1012
sV\u53f7\u7801
p26
I653
sV\u901a\u77e5
p27
I158
sV\u88ab
p28
I449
sV\u672a
p29
I318
sV\u7535\u5f71
p30
I38
sV\u4e00\u822c
p31
I1049
sV\u7ecf\u529e
p32
I920
sV\u5206\u7ea2
p33
I1038
sV\u8ba1\u5212
p34
I1007
sV\u6709\u8bef
p35
I470
sV\u673a
p36
I376
sV\u5916\u6c47\u5151\u6362
p37
I399
sV\u524d\u63d0\u6761\u4ef6
p38
I775
sV\u900f\u652f
p39
I1060
sV\u5708\u5b58
p40
I711
sV\u670d\u52a1
p41
I51
sV\u8d4e\u56de
p42
I1028
sV\u53d1\u8d77
p43
I815
sV\u8bb0\u5f55
p44
I508
sV\u4fe1\u7528
p45
I443
sV\u524d\u7aef
p46
I1033
sV\u4e13\u6237
p47
I165
sV\u89e3\u7ea6
p48
I820
sV\u7535\u5b50
p49
I700
sV\u91d1
p50
I1132
sV\u6b63\u5e38
p51
I334
sV\u4f59\u989d
p52
I837
sVACT1225
p53
I166
sV\u5c0a\u5c1a
p54
I986
sV\u5ba2\u6237\u7ecf\u7406
p55
I988
sV5\u4e07
p56
I81
sV\u8d37\u8bb0\u5361
p57
I1
sV\u79cd\u7c7b
p58
I138
sV\u5173\u7cfb
p59
I495
sV\u7f51\u4e0a\u652f\u4ed8
p60
I228
sV\u6362
p61
I661
sV\u4ee5\u4e0b
p62
I629
sV\u5546\u6237
p63
I939
sVFIS1051
p64
I956
sV\u5fae\u4fe1
p65
I537
sV\u66f4\u5927
p66
I945
sV\u5c0f\u989d\u514d\u7b7e
p67
I224
sV\u4f4f\u5740
p68
I669
sV\u4f1a
p69
I656
sVMAC
p70
I579
sV16
p71
I630
sVIE11
p72
I545
sV\u5e74
p73
I466
sV\u5ba2\u670d
p74
I866
sV\u65f6\u5019
p75
I420
sV\u8bbe\u5907
p76
I770
sV\u6700\u957f
p77
I196
sV\u8ba1\u7b97\u65b9\u6cd5
p78
I102
sV\u9875\u9762
p79
I607
sV\u534f\u8bae
p80
I170
sV\u7684
p81
I13
sV\u4e3b\u9875
p82
I1070
sV\u8de8\u5e74\u5ea6
p83
I511
sV\u8fc7\u671f
p84
I739
sV\u300b
p85
I122
sV\u6dd8\u5b9d
p86
I993
sV99995
p87
I824
sV\u8865\u6263
p88
I210
sV\u7279\u70b9
p89
I440
sV\u65e0\u5361
p90
I385
sV\u4ecb\u7ecd
p91
I36
sV\u2018
p92
I563
sV\u9519
p93
I295
sV\u5ba1\u6838
p94
I431
sV\u5f97\u5b9d
p95
I1056
sV\u514d\u8d39
p96
I749
sV\u6216\u8005
p97
I331
sV\u94f6\u8bc1
p98
I740
sV\u56fd\u5916
p99
I398
sV\u7b49\u503c
p100
I76
sV\u5361\u7247
p101
I258
sV\u9886\u5361
p102
I679
sV\u5b9d
p103
I902
sV\u975e\u5e38
p104
I968
sV\u9002\u7528
p105
I1017
sV\u6210\u529f
p106
I1010
sV\u662f
p107
I9
sV\u518d\u8bd5
p108
I635
sV\u7b7e\u7ea6
p109
I813
sV\u540d\u5b57
p110
I436
sV\u5237
p111
I762
sV\u9075\u5faa
p112
I169
sV\u8d39
p113
I838
sV\u4e94\u4e07
p114
I1112
sV\u9014\u5f84
p115
I118
sV\u5e38\u89c1\u95ee\u9898
p116
I362
sV\u91d1\u878d
p117
I608
sV\u6237\u53e3\u672c
p118
I96
sV\u5229\u7387
p119
I176
sV\u89c1\u8bc1
p120
I642
sV\u8fdd\u7ea6\u91d1
p121
I197
sV\u5224\u65ad
p122
I6
sV\u8bed\u97f3
p123
I72
sV\u7247
p124
I712
sV\u4fdd\u969c
p125
I393
sV\u505c\u5361
p126
I232
sV\u94c2\u91d1
p127
I671
sV\u8ba1\u606f
p128
I173
sV\u8bf4\u660e
p129
I31
sV\u6539\u53d8
p130
I736
sV\u63d2
p131
I336
sV\u8bbe\u7f6e
p132
I43
sV\u4e3a\u4f55
p133
I371
sV\u5f55\u5165
p134
I793
sV100
p135
I1130
sV\u6301\u591a
p136
I417
sV\u8f6c\u6c47
p137
I760
sV\u591a\u5c11
p138
I432
sV\u6700\u5927
p139
I753
sV\u600e\u4e48
p140
I423
sVFIS9999
p141
I742
sV\u6682\u65e0
p142
I1108
sV\u4f4e\u4e8e
p143
I486
sVMM
p144
I923
sV\u63d0\u4f9b
p145
I366
sV\u6536\u76ca
p146
I1043
sV\u903e\u671f
p147
I211
sV\u53d7\u6258
p148
I949
sV\u5730\u5740
p149
I675
sV\u83b7\u5f97
p150
I940
sV\u56fa\u989d
p151
I363
sV\u8fdd\u7ea6
p152
I152
sV\u5177\u4f53
p153
I844
sV\u66f4
p154
I953
sV\u4ea7\u54c1
p155
I977
sV\u8ba1\u7b97\u5668
p156
I155
sV\u5e74\u5ea6
p157
I78
sV\u6210\u7acb
p158
I1050
sV\u540e\u53d7
p159
I698
sV\u8fbe
p160
I982
sV\u7801
p161
I779
sV\u8f66\u8d37
p162
I906
sV\u5907\u7528\u91d1\u5b58\u6b3e
p163
I444
sV\u76f4\u4ed8
p164
I514
sV\u901a\u4ed6\u884c
p165
I834
sV\u4e0a
p166
I532
sV\u5e01\u79cd
p167
I143
sV\u540e
p168
I285
sV\u5feb\u6613
p169
I797
sV\u8d5a\u5f97\u5b9d
p170
I1106
sV\u5361\u53f7
p171
I18
sV\u4f1a\u53d7
p172
I737
sV\u5f00
p173
I627
sV\u9700\u65f6\u957f
p174
I1073
sV\u5c0fM
p175
I897
sV\u7981\u6b62
p176
I610
sV\u4e2d\u5fc3
p177
I53
sV\u4efd\u989d
p178
I1042
sV\u7528
p179
I811
sV\u5f00\u6237\u884c
p180
I625
sV\u4e2a
p181
I507
sV\u4e4b\u540e
p182
I657
sV\u6c7d\u8f66
p183
I963
sV\u82f9\u679c
p184
I581
sV6
p185
I582
sV\u7ec8\u6b62
p186
I1019
sV\u529e\u5361
p187
I111
sV\u70ed\u7ebf
p188
I715
sV\u4e3a
p189
I695
sV\u76d1\u62a4\u4eba
p190
I496
sV\u6838\u7b97
p191
I758
sV\u53d6\u6b3e
p192
I129
sV\u4f55\u65f6
p193
I848
sV\u7b26\u5408\u89c4\u5b9a
p194
I959
sV\u6b63\u5728
p195
I327
sV\u4e2a\u70b9
p196
I590
sV\u516c\u53f8\u516c\u544a
p197
I1034
sV\u6846
p198
I794
sV\u5b63\u5f97\u5b9d
p199
I1061
sV\u9884\u6388\u6743
p200
I359
sV\u7b14\u6570
p201
I489
sVFK20074
p202
I471
sV99
p203
I324
sV\u706b\u72d0
p204
I576
sV\u5883\u5185\u4e2a\u4eba
p205
I95
sV\u8d62\u53d6
p206
I1120
sV\u516c\u6c11
p207
I732
sVIC\u5361
p208
I463
sV\u4ea4\u6613\u65e5
p209
I357
sV\u5faa\u73af
p210
I908
sV\u7f51\u4e0a\u94f6\u884c
p211
I148
sV\u5206\u5f00
p212
I478
sV\u8f6c\u51fa
p213
I1107
sV\u6bc1\u8865
p214
I457
sV\u6709\u6548\u671f
p215
I306
sV\u4e2a\u4eba\u94f6\u884c
p216
I307
sV\u94c2\u91d1\u5361
p217
I7
sV\u70b9\u5dee
p218
I894
sV\u751f\u610f
p219
I748
sV\u66f4\u6539
p220
I836
sV\u9a8c\u8bc1\u7801
p221
I524
sVFK11034
p222
I474
sV\u4e2d\u56fd\u8054\u901a
p223
I502
sV\u8054\u540d\u5361
p224
I555
sV\u4e3b\u8981
p225
I441
sV\u6708\u65e5\u5747
p226
I101
sV\u751f\u91d1
p227
I1134
sV\u51c0\u503c
p228
I1053
sV\u8bf7
p229
I303
sV\u8d44\u4ea7\u6838\u7b97
p230
I103
sV\u8f6f\u4ef6
p231
I341
sV\u6838\u53d1
p232
I382
sV\u5916\u5e01\u8d26\u6237
p233
I876
sV\u81ea\u52a9
p234
I469
sV\u5b9e\u76d8
p235
I623
sV\u5230\u671f\u8fd8\u6b3e\u65e5
p236
I206
sV\u59d4\u6258
p237
I868
sV\u6307
p238
I92
sV\u4f5c\u5e9f
p239
I787
sV\u6b65\u6b65
p240
I1133
sV\u81ea\u8eab
p241
I520
sV\u8865\u5361
p242
I456
sV\u5f0f
p243
I1046
sV\u5206\u671f
p244
I380
sV\u3011
p245
I86
sV\u6587\u4ef6\u540d\u79f0
p246
I783
sV\u81ea\u52a8
p247
I42
sV\u91cd\u65b0
p248
I304
sV\u81ea\u52a9\u9910
p249
I554
sV\u8425\u4e1a\u7f51\u70b9
p250
I875
sV\u4e00\u5b9a
p251
I1125
sV\u8fd8\u6b3e\u65e5
p252
I202
sV\u5c0f\u5fae
p253
I924
sV\u66f4\u4e45
p254
I846
sV\u671f
p255
I1040
sV\u767b\u5f55\u540d
p256
I290
sV\u5916\u7ba1\u5c40
p257
I633
sV\u62db\u8058
p258
I1069
sV\u8ba2\u5355\u53f7
p259
I263
sV1
p260
I300
sV\u6362\u6210
p261
I620
sV\u7406\u8d22
p262
I798
sV\u591a\u957f
p263
I305
sV\u4e2a\u8d37
p264
I915
sV\u7545\u5237
p265
I564
sV\u4eba
p266
I391
sVRJ04
p267
I659
sV\u8fde\u7eed
p268
I1029
sV\u5927\u4f17
p269
I1005
sV\u8f6c\u8d26\u8ba1\u5212
p270
I374
sV\u5173\u95ed
p271
I372
sV\u5de5\u672c\u8d39
p272
I687
sV\u524d
p273
I825
sV\u7ed1\u5b9a
p274
I652
sV\u767e\u592b\u957f
p275
I881
sVmac
p276
I572
sV\u7f8e\u56fd
p277
I970
sV\u9884\u7559
p278
I654
sV\u8d37\u6b3e
p279
I182
sV\u5e74\u9f84
p280
I835
sV\u8d4e
p281
I1014
sV\u6536\u4ed8
p282
I943
sV\u94b1\u540e
p283
I48
sV\u67f3\u5dde
p284
I1079
sV\u9152\u5e97
p285
I972
sV\u4f55\u65f6\u80fd
p286
I253
sV\u9519\u8bef
p287
I332
sV\u4e0d\u540c
p288
I373
sV\u57ce\u5e02
p289
I414
sV\u7f34\u8d39
p290
I527
sV\u8d39\u7387
p291
I1052
sV\u672c\u4eba
p292
I1065
sV\u5230\u671f
p293
I708
sV\u516c\u53f8
p294
I951
sV\u5ba2\u6237\u7aef
p295
I40
sV\u5362\u68ee\u5821
p296
I693
sV\u7a0d\u5019
p297
I641
sV\u7efc\u5408
p298
I243
sV\u6263\u6b3e
p299
I1018
sV\u4f30\u7b97
p300
I768
sV\u94f6\u884c\u5c0fM
p301
I32
sV\u8d26\u53f7
p302
I14
sV\u7f51\u70b9
p303
I120
sV\u79ef\u5206
p304
I260
sV\u643a\u5e26
p305
I126
sV\u9000\u7a0e
p306
I220
sV\u8f83
p307
I1117
sV\u4ee3\u67e5
p308
I1074
sV\u76f4\u7cfb\u4eb2\u5c5e
p309
I887
sV\u6d41\u6c34\u53f7
p310
I262
sV\u5173\u4e8e
p311
I569
sV\u652f\u4ed8
p312
I340
sV\u672a\u5f00\u5361
p313
I405
sV\u201c
p314
I35
sV\u624b\u7eed
p315
I919
sV\u6587\u4ef6
p316
I275
sV\u5b8c\u5584
p317
I733
sV\u8f6c\u5165
p318
I833
sV\u5bf9\u4e0d\u8d77
p319
I957
sV\u901a\u77e5\u5b58\u6b3e
p320
I161
sV\u9884\u7ea6
p321
I658
sV\u7ed3\u7b97
p322
I713
sV\u70ed\u5237
p323
I552
sV\u6a21\u5f0f
p324
I759
sV\u8ba4\u8bc1
p325
I734
sV\u5230
p326
I60
sV\u56de\u8d2d
p327
I283
sV\u597d\u793c
p328
I559
sV\u6e38
p329
I969
sV\u7f51\u4e0a\u4ea4\u6613
p330
I264
sV\u5361\u6d88\u8d39
p331
I459
sV\u4f5c\u7528
p332
I389
sV\u6ce8\u610f
p333
I519
sV\u8bc1
p334
I119
sV\u6240
p335
I867
sV\u901a\u8baf
p336
I631
sV\u673a\u7968
p337
I971
sV\u9996\u6b21
p338
I535
sV\u4eba\u5de5
p339
I823
sV\u6700\u4f4e
p340
I98
sV\u884c
p341
I921
sV\u5bb6\u5ead
p342
I948
sV\u5bc4\u9001
p343
I246
sV\u8d26\u5355\u65e5
p344
I201
sV\u9644\u5c5e\u5361
p345
I110
sViPhone
p346
I1063
sV\u89c4\u5219
p347
I174
sV\u5fd9
p348
I639
sV\u8bc1\u4ef6\u53f7\u7801
p349
I1093
sV\u6b20\u6b3e
p350
I451
sV\u5df2\u6709
p351
I930
sV\u4eb2\u53cb
p352
I113
sV\u7b97
p353
I1098
sV\u79c1\u4eba
p354
I646
sV\u65e5
p355
I995
sV\u94f6\u884c\u5361
p356
I645
sV\u59cb\u7ec8
p357
I328
sV\u51ed
p358
I94
sV\u6301\u4ed3
p359
I1041
sV\u66f4\u65b0
p360
I322
sV\u7f51\u7ad9
p361
I1000
sV\u5bf9\u516c
p362
I937
sV25
p363
I1126
sV\u66ff\u4ee3\u5361
p364
I394
sV\u6fc0\u6d3b
p365
I536
sV\u8d2d\u7269
p366
I785
sV\u5185\u5730
p367
I643
sV\u4e0d\u80fd
p368
I430
sV\u6388\u4fe1\u989d\u5ea6
p369
I907
sV\u672a\u6210\u5e74\u4eba
p370
I91
sV\u53ea\u80fd
p371
I510
sV\u6709
p372
I64
sV\u786e\u8ba4
p373
I614
sV\u6d41\u7a0b
p374
I19
sV\u4e34\u65f6\u989d\u5ea6
p375
I238
sV\u751f\u6210
p376
I947
sV\u652f\u4ed8\u5bc6\u7801
p377
I955
sV\u4f26\u6566
p378
I690
sV\u5c0fM\u8054\u5408\u6536\u83b7IC\u5361
p379
I565
sVIE90
p380
I805
sV\u8ba1\u5165
p381
I756
sV\u4e8b\u9879
p382
I361
sV\u63a5\u6536
p383
I681
sV\u5c45\u6c11
p384
I82
sV\u5373
p385
I925
sV\u8f93\u5165
p386
I302
sV\u518d
p387
I1020
sV12
p388
I701
sV\u8d26\u5355
p389
I24
sV\u9999\u6e2f
p390
I289
sV\u5efa\u7acb
p391
I499
sV\u666e\u5361
p392
I8
sV\u80fd\u591f
p393
I131
sV\u5f52\u8fd8
p394
I1118
sV\u610f\u601d
p395
I1110
sV\u5b9e\u65f6
p396
I680
sV\u65b0
p397
I857
sV\u8865\u529e
p398
I841
sV\u8fd8\u6b3e
p399
I29
sV\u542b\u4e49
p400
I375
sV\u90e8\u5206
p401
I996
sV\u8f6c\u79fb
p402
I722
sVANDROI
p403
I831
sV\u4fe1\u7528\u5361
p404
I4
sV\u4eb2\u5b50
p405
I498
sV\u65f6\u62a5
p406
I325
sV\u5357\u5b81
p407
I1077
sV\u5165\u8d26
p408
I215
sV\u81ea\u52a9\u7ec8\u7aef
p409
I477
sV\u57ce
p410
I346
sV\u95ee\u9898
p411
I313
sV\u4fe1\u7528\u8d37\u6b3e
p412
I911
sV\u4e22\u5931
p413
I778
sV\u4ed6\u884c
p414
I776
sV\u5361\u6298
p415
I765
sV\u5ba1\u6279
p416
I979
sV\u9762\u7b7e
p417
I884
sV\u6ede\u7eb3\u91d1
p418
I445
sV\u542f\u52a8
p419
I612
sV\u7531\u4e8e
p420
I638
sV\u5361
p421
I259
sV\u529f\u80fd
p422
I41
sV\u767d\u91d1
p423
I869
sVWIN81
p424
I547
sV\u591a\u4e2a
p425
I480
sV\u90a3\u91cc
p426
I439
sV\u5206\u7c7b
p427
I821
sV\u6d3b\u671f
p428
I159
sV\u666e\u901a
p429
I772
sVSWIFTCODE
p430
I682
sV\u5355\u4f4d
p431
I1071
sV\u4ef6
p432
I727
sV\u62ff
p433
I890
sV\u7533\u8d2d
p434
I1031
sV\u4ea4\u6613\u5bc6\u7801
p435
I267
sV\u6c47\u51fa
p436
I892
sV\u597d
p437
I342
sV\u9752\u5e74
p438
I896
sVQQ
p439
I871
sV\u4e0b\u6765
p440
I886
sV\u53ef\u89c6
p441
I1103
sV\u8ffd\u52a0
p442
I1013
sV\u6708
p443
I505
sVATM
p444
I217
sV\u4e0e
p445
I354
sV\u81ea\u52a8\u4ee3\u7f34
p446
I538
sV\u5b58\u671f
p447
I144
sV\u6216
p448
I153
sV\u6536\u8d39
p449
I186
sV\u4e0b\u8f7d
p450
I33
sV\u8d44\u91d1
p451
I789
sV\u5b89\u5168\u63aa\u65bd
p452
I518
sV\u5b58\u5728
p453
I964
sVFIS1701
p454
I960
sV\u540c\u4e00
p455
I248
sV\u5728
p456
I125
sV\u6b22\u8fce
p457
I598
sV\u7528\u6237\u6ce8\u518c
p458
I845
sV\u94f6\u884c
p459
I15
sV\u8425\u9500
p460
I954
sV\u5931\u5361
p461
I392
sV\u597d\u5904
p462
I694
sVCMI0020
p463
I741
sV2
p464
I615
sV\u94f6\u8054
p465
I219
sV\u8ba1\u7b97
p466
I240
sV\u90ae\u7bb1
p467
I247
sV\u53bb
p468
I888
sV\u666e\u901a\u7248
p469
I21
sV\u624b\u673a\u94f6\u884c
p470
I23
sV\u50a8\u84c4
p471
I154
sV\u8d2d\u4e70
p472
I976
sV\u6307\u5f15
p473
I791
sV\u5168\u56fd
p474
I1097
sV\u91cd\u7f6e
p475
I270
sV\u5c0fMC\u5361
p476
I415
sV\u5168\u6c11\u4f18\u60e0
p477
I551
sV\u5883\u5185
p478
I77
sV\u505c\u7559
p479
I329
sV\u5982\u4f55
p480
I11
sV\u7efc\u5408\u5bf9\u8d26\u5355
p481
I244
sV\u989d\u5ea6\u5185
p482
I71
sV\u5229\u606f
p483
I185
sV\u817e\u8baf
p484
I994
sV\u7ed9
p485
I1099
sV\u65e0\u5361\u5b58\u73b0
p486
I256
sVipad
p487
I952
sV10
p488
I1129
sV13
p489
I506
sV\u4e0d\u4e86
p490
I229
sVActiveX
p491
I611
sV\u67dc\u53f0
p492
I83
sV\u5e74\u8d39
p493
I404
sV\u8fd0\u901a
p494
I880
sV\u53eb
p495
I435
sV\u5f53\u671f\u5b9a
p496
I1022
sV\u4e0d\u4e88
p497
I983
sV\u5916\u56fd
p498
I731
sV\u82cf\u5dde
p499
I1075
sV\u4e2a\u4f53\u6237
p500
I117
sV\u8fd0\u884c
p501
I617
sV\u6d4f\u89c8\u5668
p502
I546
sV\u5317\u4eac\u5206\u884c
p503
I1076
sV\u80fd
p504
I286
sV\u53d8\u66f4
p505
I626
sV\u5e94
p506
I595
sV\u5c06
p507
I816
sV\u8d85\u989d\u5ea6
p508
I468
sV\u4e2a\u4eba\u4fe1\u7528
p509
I1066
sV4006099095
p510
I68
sVD\u7248
p511
I832
sV\u5c55\u793a
p512
I978
sV\u5de6\u8fb9
p513
I585
sV\u5361\u7247\u72b6\u6001
p514
I22
sV\u73b0\u949e
p515
I127
sV\u8eab\u4efd\u9a8c\u8bc1
p516
I861
sV\u6211
p517
I350
sV\u4e3b\u5361
p518
I106
sV\u7d27\u6025
p519
I279
sV\u79fb\u52a8
p520
I271
sV\u201d
p521
I34
sV\u56fd\u522b
p522
I476
sV\u9057\u5fd8
p523
I343
sV\u5f81\u4fe1
p524
I1072
sV\u968f\u501f
p525
I934
sV\u7528\u6237\u540d
p526
I296
sV\u5927
p527
I895
sV\u653f\u7b56
p528
I406
sV\u63a8\u8350
p529
I112
sV\u6682\u505c
p530
I942
sV-
p531
I488
sVPOS
p532
I378
sV\u5347\u7ea7
p533
I663
sV\u4e2d\u95f4
p534
I936
sV\u5f52\u96c6
p535
I788
sV\u7279\u5b9a
p536
I566
sVANDROID
p537
I810
sV\u5e02\u503c
p538
I767
sV\u52a0\u8f7d
p539
I806
sV\u5355\u5e01
p540
I447
sV\u8303\u56f4
p541
I74
sV\u9009\u9879
p542
I531
sV\u78c1\u6761\u5361
p543
I699
sVWindowsXP
p544
I570
sV\u8d26\u6237
p545
I0
sV\u627e\u5230
p546
I786
sV\u90ae\u5bc4
p547
I460
sVM
p548
I515
sV\u64a4\u5355
p549
I1055
sV\u56fe\u7247
p550
I587
sV\u5151\u6362
p551
I88
sV\u89c4\u5b9a
p552
I128
sV\u50a8\u84c4\u5361
p553
I2
sV\u7ecf\u5178
p554
I878
sV\u8fd8
p555
I369
sV\u4f01\u4e1a
p556
I926
sV\u4e0d\u8db3
p557
I1026
sV\u5883\u5916
p558
I89
sV\u501f\u8bb0\u5361
p559
I5
sVVISA
p560
I751
sV\u95ea\u7535
p561
I931
sV\u82f9\u679c\u7535\u8111
p562
I580
sV\u9014
p563
I1054
sV\u89e3\u9501
p564
I450
sV\u54ea
p565
I542
sV\u623f\u8d37
p566
I905
sV\u5355\u7b14
p567
I1025
sV\u672c\u7968
p568
I284
sV\u6982\u5ff5
p569
I200
sV\u667a\u80fd\u5b9a\u671f
p570
I254
sV\u53d6\u73b0
p571
I190
sV\u4e00\u81f4
p572
I851
sV\u8d44\u683c
p573
I941
sV\u5907\u4efd
p574
I999
sV\u539f\u56e0
p575
I227
sV\u4e3a\u4ec0\u4e48
p576
I384
sV\u663e\u793a
p577
I321
sV\u5173\u6ce8
p578
I1039
sV\u4e70\u5356
p579
I624
sV\u8ba4\u8d2d
p580
I1036
sV\u63d0\u989d
p581
I401
sV\u82af\u7247
p582
I745
sV\u8d85\u7ea7\u7f51\u94f6
p583
I54
sV\u672c\u91d1
p584
I1123
sV\u5c0fM\u5f00\u5fc3\u5361
p585
I492
sV\u6536\u5230
p586
I46
sV\u5468\u672b
p587
I99
sV\u5f20\u5361
p588
I416
sV\u4e07\u5143
p589
I1127
sV\u4e8b\u4ef6
p590
I571
sV\u4e0b\u8f7d\u5b89\u88c5
p591
I784
sV\u7f13\u6162
p592
I319
sVCD16461
p593
I743
sVFISB250RVB4304RVB4013
p594
I386
sV\u5ef6\u957f
p595
I349
sV\u5468\u671f
p596
I208
sV\u8d4e\u56de\u8d39
p597
I1037
sV\u8d26
p598
I63
sV\u7f34\u8d39\u63d0\u9192
p599
I539
sV\u7533\u8bf7
p600
I105
sV\u8d22\u4ed8
p601
I828
sV\u5904\u7406
p602
I592
sV\u9879\u76ee
p603
I757
sV\u989d\u5ea6
p604
I191
sV\u63d0\u5347
p605
I418
sV\u5176\u4ed6
p606
I501
sV\u624b\u673a\u53f7\u7801
p607
I655
sV\u7c7b\u578b
p608
I938
sV\u5386\u53f2\u8d26\u5355
p609
I27
sV\u65b9\u6cd5
p610
I209
sV\u4ec0\u4e48
p611
I188
sVIPHONE
p612
I809
sV\u5440
p613
I437
sV\u5361\u7ba1\u7406
p614
I790
sV\u514d\u606f\u671f
p615
I195
sV\u8d27\u5e01
p616
I1044
sV\u8d39\u662f
p617
I856
sV\u7b80\u4ecb
p618
I830
sV\u6253\u5370
p619
I251
sVFKD9999
p620
I637
sV\u56de\u5355
p621
I528
sV\u8054\u7cfb\u65b9\u5f0f
p622
I909
sV\u91d1\u5361
p623
I10
sV\u60c5\u51b5
p624
I840
sV\u5ba2\u6237
p625
I107
sV\u5468\u8f6c
p626
I904
sVX
p627
I425
sV\u53f7
p628
I249
sV\u9501\u5b9a
p629
I1092
sV\u96f6\u5b58\u6574\u53d6
p630
I147
sV\u6574\u5b58\u6574\u53d6
p631
I140
sV\u53c2\u4e0e\u8005
p632
I442
sV\u62b5\u62bc
p633
I913
sV\u9500\u5361
p634
I454
sV\u8be5
p635
I589
sV\u8bf7\u6c42
p636
I312
sV\u884c\u53f7
p637
I684
sV\u8d44\u4ea7
p638
I100
sV\u9a8c\u8bc1
p639
I525
sV\u5408\u5e76
p640
I409
sV\u91cc\u7a0b
p641
I412
sV\u7aef
p642
I829
sV\u6211\u884c
p643
I814
sV\u65b0\u52a0\u5761
p644
I692
sV\u5feb\u6377
p645
I808
sV\u8fdb\u5ea6
p646
I114
sV\u94f6\u884c\u8d26\u53f7
p647
I710
sV\u91cd\u5199\u78c1
p648
I666
sV\u64cd\u4f5c
p649
I55
sV\u76f4\u63a5
p650
I889
sV\u51c6\u5165\u6761\u4ef6
p651
I650
sV\u8d22\u529b
p652
I365
sV\u7535\u8bdd
p653
I69
sV\u4fdd\u5e95
p654
I854
sVWIN8
p655
I583
sV\u9700\u8981
p656
I484
sV\u4e2a\u4eba\u7248
p657
I20
sV\u5f90\u5dde
p658
I1078
sV\u7cfb\u5217\u4ea7\u54c1
p659
I1136
sV\u7a7a\u767d
p660
I604
sV5000
p661
I530
sV\u4e4b\u524d
p662
I847
sV\u603b
p663
I754
sV\u4e13\u7ebf
p664
I883
sV\u5b9a
p665
I1006
sV\u8d77\u6b62
p666
I870
sV\u9501\u5361
p667
I452
sV\u72b6\u6001
p668
I234
sV\u6df1\u5733
p669
I550
sV\u7528\u5361
p670
I522
sV\u529e
p671
I621
sV\u914d\u7f6e\u6587\u4ef6
p672
I323
sV\u54ea\u4e9b
p673
I132
sV\u754c\u9762
p674
I330
sV\u60a8
p675
I613
sV\u542b
p676
I465
sV\u8c37\u6b4c
p677
I577
sV\u5df2\u51fa
p678
I355
sV\u672a\u51fa\u8d26\u5355
p679
I356
sV3
p680
I348
sV\u6d41\u6c34
p681
I795
sV\u80a1\u7968
p682
I900
sV\u9501\u6b7b
p683
I310
sV\u7f51\u4e0a
p684
I192
sV\u66f4\u6362
p685
I696
sV\u57fa\u91d1
p686
I950
sV\u5361\u5e74\u8d39
p687
I992
sV\u8d26\u5355\u5206\u671f
p688
I429
sV\u6c34\u5355
p689
I481
sV\u9650\u5236
p690
I65
sV\u5305\u62ec
p691
I729
sV\u4f4d
p692
I801
sV\u53ca
p693
I26
sV\u4e2a\u4eba\u672c\u7968
p694
I280
sV\u522b\u540d
p695
I534
sV\u5173\u8054
p696
I497
sV\u7acb\u5373
p697
I688
sV\u4e66\u9762
p698
I660
sV\u8ba1\u7b97\u516c\u5f0f
p699
I199
sV\u51fa\u73b0
p700
I575
sV\u4fdd\u62a4
p701
I1003
sV\u9000\u5f79
p702
I568
sV\u624b\u673a\u53f7
p703
I812
sV\u5c1a\u672a
p704
I1100
sV\u5b9a\u989d
p705
I855
sV\u5b9e\u73b0
p706
I898
sV\u90e8
p707
I914
sV\u53ef\u4ee5
p708
I93
sV\u7cfb\u7edf
p709
I544
sV\u5229\u606f\u7a0e
p710
I135
sV\u53ef\u80fd\u6027
p711
I1121
sV\u4e00\u76f4
p712
I320
sV\u65f6
p713
I167
sV\u5f00\u51fa
p714
I281
sV\u7c7b
p715
I705
sV\u603b\u8d44\u4ea7
p716
I755
sV\u4ea4\u6613
p717
I223
sV\u4e2a\u4eba\u901a\u77e5\u5b58\u6b3e
p718
I139
sV\u68c0\u7d22
p719
I683
sV\u8d2d\u6c47
p720
I75
sV\u793c\u54c1
p721
I1001
sV\u671f\u4f9b
p722
I917
sV\u767b\u5165
p723
I339
sV\u533a\u522b
p724
I294
sV\u501f\u6b3e
p725
I929
sV\u5916\u5e01\u5b58\u6b3e
p726
I130
sV\u5b58\u7ba1
p727
I720
sV\u4fe1\u606f
p728
I516
sV\u4f4f\u623f
p729
I714
sVWEB0003
p730
I632
sV64
p731
I802
sV\u82f1\u6587
p732
I584
sV\u5de5\u8d44\u5355
p733
I1009
sV\u5f00\u901a
p734
I50
sV\u77ed\u4fe1\u901a\u77e5
p735
I49
sV\u501f\u8bb0
p736
I752
sV\u539f
p737
I483
sV\u7d2f\u79ef
p738
I413
sVWEB0010
p739
I640
sV\u5168\u5e01\u79cd
p740
I257
sV\u957f\u6c99
p741
I730
sV\u6e20\u9053
p742
I218
sV\u65f6\u6548
p743
I214
sV\u4eb2\u5b50\u5173\u7cfb
p744
I899
sV\u597d\u671f
p745
I932
sV\u9002\u7528\u8303\u56f4
p746
I390
sV\u5f53\u671f\u8d26\u5355
p747
I204
sV\u53d1\u9001
p748
I523
sV\u5de5\u4f5c
p749
I368
sV\u9500\u6237
p750
I455
sV\u6ce8\u518c
p751
I792
sV\u6f0f\u5b58
p752
I151
sV\u70b9
p753
I1091
sV\u8138
p754
I761
sV\u5e73\u7ea7
p755
I665
sV\u76f8\u6bd4
p756
I493
sV\u63d0\u524d
p757
I255
sV\u2161
p758
I703
sV\u8def\u5f84
p759
I1051
sV\u6c7d\u8f66\u8d37\u6b3e
p760
I981
sV\u9644\u52a0\u7801
p761
I591
sV\u7ad9
p762
I1058
sV\u5361\u901a
p763
I1011
sV\u767d\u91d1\u5361
p764
I877
sV\u8d35\u5bbe
p765
I882
sV\u98de\u884c
p766
I411
sVUKEY
p767
I315
sV\u623f\u4ea7
p768
I912
sV\u7b7e\u8ba2
p769
I171
sV\u8fd8\u6e05
p770
I433
sV\u5fd8\u8bb0
p771
I291
sV32
p772
I800
sV\u6700\u4f4e\u8fd8\u6b3e\u989d
p773
I198
sV\u5e7f\u5dde
p774
I718
sV\u6302\u5931\u624b\u7eed
p775
I839
sV\u77ed\u4fe1
p776
I774
sV\u6b64
p777
I597
sV\u5bfc\u81f4
p778
I697
sVHELLOKITTY
p779
I966
sV\u8f6c
p780
I162
sV\u53ef
p781
I252
sV\u4fee\u6539
p782
I207
sV\u65e5\u671f
p783
I150
sV\u80fd\u5426
p784
I513
sV\u5931\u8d25
p785
I225
sV\u65e0\u6cd5
p786
I316
sV\u7cbe\u81f4
p787
I879
sV\u8eab\u4efd\u8bc1
p788
I1089
sV\u52a0\u529e
p789
I108
sV\u65e0\u6548
p790
I301
sV\u8bc4\u4f30
p791
I235
sV\u57fa\u672c
p792
I133
sV\u5361\u9762
p793
I747
sV\u5916\u6c47
p794
I85
sV\u7ec4\u7ec7
p795
I622
sV\u6613\u56fa\u8bdd
p796
I944
sV\u4e0d
p797
I163
sV\u8de8\u6237
p798
I674
sV\u6536\u6b3e\u4eba
p799
I893
sV\u5c11
p800
I424
sVACT1020
p801
I485
sV\u65f6\u95f4
p802
I61
sV\u76f8\u5173
p803
I360
sV\u2019
p804
I562
sV\u77ed\u671f
p805
I1114
sV\u7ba1\u7406\u8d39
p806
I648
sV\u6570\u91cf
p807
I707
sV\u53d7\u5230\u9650\u5236
p808
I494
sV\u6709\u591a\u5f20
p809
I458
sV\u56fa\u5b9a\u989d\u5ea6
p810
I400
sV\u5c0fMM\u5361
p811
I462
sV\u62bd\u5956
p812
I987
sV\u751f\u6d3b
p813
I526
sV\u5b9a\u671f\u5b58\u6b3e\u652f\u53d6
p814
I175
sV\u68c0\u67e5
p815
I326
sV)
p816
I216
sV:
p817
I826
sV\u63d0\u9ad8
p818
I237
sV\u4e2d
p819
I975
sV\u5468\u4e94
p820
I1045
sV\u673a\u4f1a
p821
I1122
sV\u5c31
p822
I311
sV\u54cd\u5e94
p823
I317
sV\u51b2\u8d26
p824
I212
sVpad
p825
I533
sV\u6302\u5931
p826
I276
sV\u65e5\u5fd7
p827
I998
sV\u600e\u4e48\u529e
p828
I403
sV\u8eab\u4efd
p829
I728
sV\u65b0\u65e7
p830
I1087
sV\u7ed3\u552e\u6c47
p831
I73
sV\u5143
p832
I529
sV\u8bb0\u8d26\u65e5
p833
I358
sV\u5bc4
p834
I242
sVI
p835
I750
sV\u514d\u606f
p836
I352
sV\u50a8\u6237
p837
I179
sVII
p838
I725
sV\u5bc6\u7801
p839
I266
sV\u6ee1\u8db3
p840
I668
sV\u6d88\u8d39
p841
I377
sV\u671f\u9650
p842
I935
sVFK11013
p843
I490
sV\u751f\u6548
p844
I402
sV\u7ed3\u6784\u6027
p845
I974
sVIE
p846
I799
sV\u7b2c\u4e09\u65b9\u5b58\u7ba1
p847
I709
sV\u53e3\u5934
p848
I817
sV\u4ecd\u7136
p849
I859
sV\u4eba\u624d
p850
I1068
sV\u79fb\u52a8\u7535\u8bdd
p851
I843
sV\u6295\u5b9a
p852
I1015
sV\u5361\u6709
p853
I446
sV\u7a0d\u540e
p854
I634
sV\u7ec6\u8282
p855
I796
sV\u64a4\u9500
p856
I388
sV\u6362\u53f7
p857
I678
sV\u5168\u57ce
p858
I553
sV\u4f18\u52bf
p859
I644
sV\u6536\u53d6
p860
I57
sV\u5373\u8f6c
p861
I160
sV\u5927\u4e30\u6536
p862
I556
sV\u7ed3\u6c47
p863
I70
sV\u8bd5\u7b97
p864
I910
sVT
p865
I1035
sV\u65b0\u5bc6\u7801
p866
I958
sV\u8981\u6c42
p867
I287
sV\u5185
p868
I738
sV\u5b9a\u4e49
p869
I141
sV\u540c
p870
I345
sV\u4e71\u7801
p871
I573
sV\u667a\u80fd
p872
I172
sV\u9884\u8ba2
p873
I973
sV\u7528\u9014
p874
I933
sV\u624b\u673a
p875
I30
sV\u591a
p876
I408
sVEMAIL
p877
I766
sV\u4e2a\u4eba\u8d44\u6599
p878
I1064
sV\u7406\u8d22\u4ea7\u54c1
p879
I985
sV\u6295\u8d44
p880
I1027
sV\u4e0b
p881
I804
sV\u7ed3\u679c
p882
I849
sV\u4e00\u7f51\u901a
p883
I292
sV\u5317\u4eac
p884
I716
sV\u9501\u4f4f
p885
I1084
sV\u9009\u62e9
p886
I277
sVWIN10
p887
I807
sV\u6362\u7b97
p888
I222
sV\u897f\u5b89
p889
I685
sV\u2160
p890
I704
sV5
p891
I594
sV\u4ee3\u53d1
p892
I864
sV\u7b49\u7ea7
p893
I12
sV\u65f6\u4e00
p894
I308
sV\u540c\u884c
p895
I771
sV\u7f51\u94f6
p896
I274
sV\u63d0\u793a
p897
I164
sV\u7248
p898
I603
sV\u5b9a\u6d3b\u4e24\u4fbf
p899
I239
sV\u7b49\u4f60\u62ff
p900
I560
sV\u9884\u501f\u73b0\u91d1
p901
I187
sV\u6263\u8d39
p902
I673
sV\u987a\u5e8f
p903
I213
sV\u5728\u552e
p904
I1135
sV\u5df2\u6301
p905
I109
sV30
p906
I1115
sV\u4e92\u8f6c
p907
I1021
sV\u5faa\u73af\u4fe1\u7528
p908
I428
sV\u5b58\u73b0
p909
I134
sV\u529e\u7406
p910
I67
sV\u8f6c\u8d26
p911
I59
sV\u5f00\u5361
p912
I194
sV\u6545\u969c
p913
I636
sV\u5929\u5185
p914
I1116
sV\u7f8e\u5143
p915
I487
sV51
p916
I990
sV50
p917
I1119
sV\u660e\u7ec6
p918
I28
sV\u9650\u989d
p919
I193
sV\u4e70
p920
I901
sV\u5bf9
p921
I177
sV\u6295
p922
I1008
sV\u539f\u5361
p923
I662
sV\u94bb\u77f3
p924
I649
sV\u98ce\u9669
p925
I1113
sV\u684c\u9762
p926
I335
sV\u63a8\u5e7f
p927
I558
sV\u5237\u5361
p928
I226
sV\u53d7\u7406
p929
I719
sV\u8d85\u8fc7
p930
I426
sV\u4ecb\u8d28
p931
I991
sV\u548c
p932
I293
sV\u6807\u51c6
p933
I184
sV\u5b58\u6298
p934
I16
sV\u5c0fM\u7406\u8d22
p935
I44
sV\u635f\u5931
p936
I1128
sV\u5417
p937
I383
sV\u4f7f\u7528
p938
I282
sV\u5b89\u88c5
p939
I616
sVEmail
p940
I1088
sV\u600e\u6837
p941
I803
sV\u51bb\u7ed3
p942
I448
sV\u65b0\u5ba2\u6237
p943
I104
sV\u8f66\u6613
p944
I980
sV\u6bcf\u6708
p945
I205
sV\u6ca1\u6709
p946
I47
sV\u7ecf\u7406
p947
I997
sV\u52df\u96c6
p948
I1048
sV\u5347\u964d\u7ea7
p949
I686
sV\u662f\u5426\u662f
p950
I479
sV\u51c6\u5165
p951
I647
sV\u4f4d\u7f6e
p952
I677
sV\u6ce8\u610f\u4e8b\u9879
p953
I25
sV\u6709\u6548
p954
I726
sV\u4e3b
p955
I1059
sV\u53f3\u4fa7
p956
I602
sV\u94f6\u5ddd
p957
I1081
sV\u8fd8\u6b3e\u671f
p958
I353
sV\u5907\u6ce8
p959
I517
sV\u4ee5\u524d
p960
I504
sV\u73b0\u91d1
p961
I379
sV\u6362\u5361
p962
I116
sV\u4e13\u4e1a
p963
I1004
sV\u9700
p964
I667
sV\u4f60\u5bb6
p965
I438
sV\u590d\u5229
p966
I189
sV\u6307\u5b9a
p967
I723
sV\u952e\u76d8
p968
I309
sV\u4e92\u67e5
p969
I1086
sV\u7e41\u4f53
p970
I574
sV\u4e00\u6b21
p971
I1024
sV\u94b1\u5305
p972
I503
sV\u4f4d\u6570
p973
I17
sV\u9700\u63d0\u4ea4
p974
I1090
sV\u9ad8
p975
I1124
sV\u5206\u884c
p976
I288
sV\u7eed\u5b58
p977
I149
sV\u63d0\u9192
p978
I1094
sV\u652f\u4ed8\u5b9d
p979
I827
sV\u51cf\u514d
p980
I672
sV\u767b\u5f55
p981
I298
sV\u62a5\u544a
p982
I1067
sV\u4ee5\u5185
p983
I509
sV\u8d37\u540e
p984
I922
sVApplepay
p985
I396
sV\u5bf9\u4e8e
p986
I1047
sV\u7a0b\u5e8f
p987
I599
sV\u4eba\u884c\u5b58\u6b3e\u5229\u7387
p988
I180
sV\u4f20\u771f
p989
I676
sV\u7ebd\u7ea6
p990
I691
sV\u5df2
p991
I512
sV\u5185\u5bb9
p992
I548
sV\u6d88\u606f
p993
I52
sVUK
p994
I819
sV\u589e\u52a0
p995
I1023
sV\u7f8e\u91d1
p996
I80
sV\u51fa
p997
I735
sV\u5f52\u5c5e
p998
I984
sV\u4e0a\u9762
p999
I1101
sV\u4eba\u6c11\u5e01
p1000
I90
sV\u6700
p1001
I422
sV\u80fd\u529e
p1002
I885
sV\u5bb9\u5dee
p1003
I427
sV\u6237\u7aef
p1004
I822
sV\u578b
p1005
I989
sV\u300a
p1006
I123
sV112142
p1007
I337
sV\u5b9a\u5411
p1008
I928
sV\u8bc1\u660e
p1009
I364
sV\u5feb\u9012
p1010
I872
sV\u63a7\u4ef6
p1011
I578
sV\u516c\u79ef\u91d1
p1012
I717
sV\u67e5\u770b
p1013
I946
sV\u652f\u53d6
p1014
I156
sV\u901a
p1015
I777
sV\u5feb\u901f
p1016
I203
sV\u8d85\u9650
p1017
I491
sV\u4fdd\u62a4\u671f
p1018
I852
sV\u5f20
p1019
I407
sVApplePay
p1020
I397
sV\u770b\u4e0d\u5230
p1021
I619
sV\u5f00\u59cb
p1022
I1109
sV\u65b0\u6237
p1023
I967
sV\u53ef\u7528
p1024
I467
sV\u52a9
p1025
I903
sV\u6c47\u6b3e
p1026
I62
sV\u884c\u5361
p1027
I763
sV\u4e00\u952e
p1028
I453
sV\u67e5\u8be2\u7535\u8bdd
p1029
I1096
sV\u9884\u8bbe
p1030
I278
sV\u5b89\u5168
p1031
I521
sV\u5b58\u6b3e
p1032
I136
sV\u5f00\u6237
p1033
I145
sV\u591a\u4e45
p1034
I962
sV\u8de8\u5883
p1035
I891
sV\u603b\u89c8
p1036
I769
sV\u6570\u636e
p1037
I965
sV\u7279\u6b8a
p1038
I567
sV\u591a\u957f\u65f6\u95f4
p1039
I773
sViphone
p1040
I606
sV\u8d39\u7528
p1041
I395
sV\u8f6c\u5e10
p1042
I1102
sV\u4e2a\u4eba
p1043
I183
sV\u65e5\u65e5
p1044
I1131
sV\u5929\u6570
p1045
I351
sV\u8425\u4e1a\u65f6\u95f4
p1046
I1105
sV\u7528\u6237
p1047
I272
sV\u8865\u6253
p1048
I482
sV\u6b21\u6570
p1049
I860
sV\u5b9a\u671f
p1050
I137
sV\u8d44\u6599
p1051
I367
sV\u89e3\u51b3
p1052
I588
sV\u7a97\u53e3
p1053
I601
sV\u65b0\u7248
p1054
I862
sV\u6d3b\u52a8
p1055
I557
sV\u4e09\u671f
p1056
I1030
sV\u624b\u7eed\u8d39
p1057
I58
sV\u4f60\u597d
p1058
I461
sV\u65f6\u9700
p1059
I168
sV\u4f60
p1060
I434
sV\u5e97\u9762
p1061
I1002
sV\u8bc1\u4e66
p1062
I273
sV\u671f\u95f4
p1063
I842
sV\u662f\u4e0d\u662f
p1064
I746
sV\u4e1a\u52a1
p1065
I66
sV\u4e3a\u7ea2\u53c9
p1066
I593
sV\u7f51\u9875
p1067
I596
sV\u6302\u53f7
p1068
I873
sV\u76fe
p1069
I782
sV\u662f\u5426
p1070
I56
sV\u81ea\u52a9\u6e20\u9053
p1071
I79
sV\u8c03\u6574
p1072
I181
sV\u672a\u767b\u8bb0
p1073
I850
sV\u627e
p1074
I473
sV\u5357\u4eac
p1075
I1080
sV\u590d\u5361
p1076
I233
sV\u65e7\u5361
p1077
I702
sV\u822a\u7a7a
p1078
I410
sV\u4e86
p1079
I333
sV\u53d6\u6d88
p1080
I157
sV\u65b9\u9762
p1081
I543
sV\u67e5\u8be2
p1082
I3
sV\u6c47\u7387
p1083
I221
sVWINDOWSPHONE
p1084
I1062
sV\u6dfb\u52a0
p1085
I245
sV\u65b0\u578b
p1086
I818
sV\u7f51\u9875\u7248
p1087
I39
sV\u65b0\u5361\u4e0a
p1088
I721
sV\u91cd\u8bbe
p1089
I268
sV\u7591\u95ee
p1090
I261
sV\u4eb2\u4e34
p1091
I689
sV\u6253\u4e0d\u5f00
p1092
I609
sV\u6062\u590d
p1093
I231
sV\u4f18\u60e0
p1094
I37
sV\u8d77\u5b58\u91d1\u989d
p1095
I142
sV\u91d1\u989d
p1096
I97
sV\u52a9\u624b
p1097
I605
sV\u672a\u627e\u5230
p1098
I338
sV\u5f02\u5730
p1099
I124
sV\u8d37
p1100
I927
sV\u6210\u90fd
p1101
I1082
sV\u7248\u672c
p1102
I858
sV\u4ed6\u4eba
p1103
I265
sV\u5468\u5c81
p1104
I628
sV\u7ed3\u6e05
p1105
I918
sV\u5916\u5e01
p1106
I84
sV\u83dc\u5355
p1107
I1104
sV\u4e0e\u975e
p1108
I724
sV\u8d28\u62bc
p1109
I961
sV\u52a0\u6025
p1110
I865
sV\u5bf9\u8c61
p1111
I1016
sV\u5f00\u7acb
p1112
I121
sV\u671f\u6ee1
p1113
I1032
sV\u8d44\u8d39
p1114
I540
sV\u53f3\u8fb9
p1115
I586
sV\u652f\u6301
p1116
I464
sV\u57fa\u91d1\u51c0\u503c
p1117
I1057
sV\u7cbe\u5f69
p1118
I561
sVU
p1119
I781
sV\u4e0d\u5230
p1120
I370
sV\u5de5\u8d44
p1121
I863
sV\u4ed6
p1122
I764
sV\u6388\u6743
p1123
I780
sV\u5929
p1124
I347
sV\u5f71\u54cd
p1125
I178
sV\u521d\u59cb
p1126
I1083
sV\u4f18\u60e0\u6d3b\u52a8
p1127
I541
sV\u4eba\u884c
p1128
I744
sV\u5c0f\u4e8e
p1129
I1111
sV\u5b63
p1130
I549
sV\u8865
p1131
I241
sV\u67e5\u8be2\u5bc6\u7801
p1132
I269
sV\u65b9\u5f0f
p1133
I45
sVFP07034
p1134
I236
sV\u5168\u989d
p1135
I853
sV\u671f\u6570
p1136
I381
sV\u56fd\u9645
p1137
I230
sVFK30082
p1138
I475
sV\u9875
p1139
I600
sV\u767b\u9646
p1140
I297
sV\u8de8\u884c
p1141
I344
sV\u8bc1\u4ef6
p1142
I472
sV\u6700\u5c0f\u5316
p1143
I618
sV\u4fdd\u6301
p1144
I916
sV\u8bc6\u522b
p1145
I314
ssS'dfs'
p1146
(dp1147
I0
I92
sI1
I2
sI2
I222
sI3
I186
sI4
I202
sI5
I18
sI6
I1
sI7
I6
sI8
I4
sI9
I44
sI10
I7
sI11
I96
sI12
I1
sI13
I289
sI14
I3
sI15
I53
sI16
I10
sI17
I2
sI18
I21
sI19
I90
sI20
I164
sI21
I93
sI22
I2
sI23
I115
sI24
I21
sI25
I20
sI26
I20
sI27
I1
sI28
I13
sI29
I69
sI30
I18
sI31
I11
sI32
I12
sI33
I15
sI34
I32
sI35
I31
sI36
I47
sI37
I9
sI38
I2
sI39
I3
sI40
I7
sI41
I74
sI42
I6
sI43
I30
sI44
I5
sI45
I25
sI46
I2
sI47
I3
sI48
I1
sI49
I3
sI50
I47
sI51
I21
sI52
I1
sI53
I4
sI54
I48
sI55
I59
sI56
I43
sI57
I8
sI58
I31
sI59
I93
sI60
I26
sI61
I45
sI62
I37
sI63
I24
sI64
I26
sI65
I9
sI66
I18
sI67
I60
sI68
I1
sI69
I18
sI70
I10
sI71
I13
sI72
I2
sI73
I17
sI74
I8
sI75
I18
sI76
I2
sI77
I7
sI78
I2
sI79
I2
sI80
I3
sI81
I3
sI82
I10
sI83
I23
sI84
I8
sI85
I18
sI86
I3
sI87
I3
sI88
I8
sI89
I22
sI90
I3
sI91
I2
sI92
I2
sI93
I17
sI94
I1
sI95
I8
sI96
I1
sI97
I8
sI98
I2
sI99
I2
sI100
I6
sI101
I7
sI102
I4
sI103
I3
sI104
I6
sI105
I78
sI106
I1
sI107
I6
sI108
I1
sI109
I1
sI110
I7
sI111
I10
sI112
I2
sI113
I1
sI114
I4
sI115
I6
sI116
I32
sI117
I1
sI118
I5
sI119
I1
sI120
I10
sI121
I9
sI122
I1
sI123
I1
sI124
I3
sI125
I8
sI126
I1
sI127
I5
sI128
I34
sI129
I15
sI130
I1
sI131
I1
sI132
I14
sI133
I8
sI134
I1
sI135
I1
sI136
I7
sI137
I4
sI138
I3
sI139
I5
sI140
I3
sI141
I12
sI142
I2
sI143
I10
sI144
I2
sI145
I32
sI146
I6
sI147
I6
sI148
I13
sI149
I2
sI150
I3
sI151
I1
sI152
I1
sI153
I21
sI154
I2
sI155
I1
sI156
I1
sI157
I23
sI158
I7
sI159
I18
sI160
I1
sI161
I12
sI162
I18
sI163
I13
sI164
I23
sI165
I1
sI166
I1
sI167
I15
sI168
I1
sI169
I1
sI170
I40
sI171
I2
sI172
I12
sI173
I3
sI174
I16
sI175
I1
sI176
I3
sI177
I4
sI178
I14
sI179
I1
sI180
I1
sI181
I2
sI182
I37
sI183
I16
sI184
I20
sI185
I5
sI186
I25
sI187
I11
sI188
I45
sI189
I1
sI190
I6
sI191
I31
sI192
I9
sI193
I50
sI194
I6
sI195
I12
sI196
I1
sI197
I3
sI198
I6
sI199
I5
sI200
I3
sI201
I7
sI202
I3
sI203
I11
sI204
I3
sI205
I3
sI206
I2
sI207
I64
sI208
I6
sI209
I10
sI210
I1
sI211
I6
sI212
I1
sI213
I1
sI214
I8
sI215
I4
sI216
I136
sI217
I19
sI218
I6
sI219
I9
sI220
I1
sI221
I2
sI222
I1
sI223
I47
sI224
I1
sI225
I11
sI226
I4
sI227
I4
sI228
I11
sI229
I1
sI230
I12
sI231
I5
sI232
I2
sI233
I2
sI234
I2
sI235
I3
sI236
I1
sI237
I5
sI238
I5
sI239
I3
sI240
I7
sI241
I1
sI242
I1
sI243
I1
sI244
I14
sI245
I1
sI246
I3
sI247
I1
sI248
I1
sI249
I8
sI250
I4
sI251
I14
sI252
I4
sI253
I1
sI254
I3
sI255
I16
sI256
I1
sI257
I4
sI258
I7
sI259
I12
sI260
I18
sI261
I2
sI262
I1
sI263
I2
sI264
I1
sI265
I2
sI266
I29
sI267
I4
sI268
I2
sI269
I23
sI270
I10
sI271
I2
sI272
I17
sI273
I21
sI274
I17
sI275
I5
sI276
I30
sI277
I4
sI278
I1
sI279
I5
sI280
I3
sI281
I1
sI282
I27
sI283
I1
sI284
I2
sI285
I14
sI286
I5
sI287
I10
sI288
I25
sI289
I18
sI290
I1
sI291
I6
sI292
I24
sI293
I17
sI294
I21
sI295
I4
sI296
I6
sI297
I6
sI298
I18
sI299
I8
sI300
I5
sI301
I3
sI302
I5
sI303
I3
sI304
I1
sI305
I1
sI306
I12
sI307
I17
sI308
I1
sI309
I1
sI310
I1
sI311
I1
sI312
I2
sI313
I6
sI314
I2
sI315
I5
sI316
I10
sI317
I1
sI318
I4
sI319
I1
sI320
I2
sI321
I8
sI322
I7
sI323
I2
sI324
I1
sI325
I1
sI326
I1
sI327
I1
sI328
I1
sI329
I1
sI330
I2
sI331
I2
sI332
I2
sI333
I9
sI334
I3
sI335
I1
sI336
I1
sI337
I1
sI338
I1
sI339
I1
sI340
I59
sI341
I1
sI342
I1
sI343
I1
sI344
I34
sI345
I1
sI346
I1
sI347
I2
sI348
I1
sI349
I1
sI350
I6
sI351
I1
sI352
I1
sI353
I1
sI354
I18
sI355
I1
sI356
I3
sI357
I3
sI358
I2
sI359
I4
sI360
I3
sI361
I1
sI362
I1
sI363
I1
sI364
I8
sI365
I3
sI366
I3
sI367
I12
sI368
I1
sI369
I2
sI370
I2
sI371
I1
sI372
I9
sI373
I2
sI374
I3
sI375
I4
sI376
I1
sI377
I39
sI378
I4
sI379
I7
sI380
I5
sI381
I3
sI382
I2
sI383
I12
sI384
I5
sI385
I1
sI386
I1
sI387
I4
sI388
I3
sI389
I2
sI390
I2
sI391
I3
sI392
I1
sI393
I1
sI394
I2
sI395
I7
sI396
I1
sI397
I1
sI398
I2
sI399
I2
sI400
I3
sI401
I1
sI402
I4
sI403
I4
sI404
I9
sI405
I1
sI406
I1
sI407
I1
sI408
I2
sI409
I1
sI410
I2
sI411
I1
sI412
I1
sI413
I4
sI414
I1
sI415
I1
sI416
I2
sI417
I2
sI418
I1
sI419
I15
sI420
I1
sI421
I1
sI422
I1
sI423
I18
sI424
I1
sI425
I1
sI426
I2
sI427
I1
sI428
I2
sI429
I8
sI430
I4
sI431
I2
sI432
I5
sI433
I1
sI434
I1
sI435
I1
sI436
I1
sI437
I1
sI438
I1
sI439
I1
sI440
I3
sI441
I1
sI442
I1
sI443
I3
sI444
I1
sI445
I1
sI446
I1
sI447
I1
sI448
I2
sI449
I1
sI450
I1
sI451
I2
sI452
I1
sI453
I1
sI454
I1
sI455
I2
sI456
I2
sI457
I1
sI458
I1
sI459
I1
sI460
I2
sI461
I1
sI462
I10
sI463
I16
sI464
I18
sI465
I2
sI466
I1
sI467
I1
sI468
I5
sI469
I14
sI470
I2
sI471
I1
sI472
I3
sI473
I1
sI474
I1
sI475
I1
sI476
I1
sI477
I1
sI478
I1
sI479
I1
sI480
I1
sI481
I1
sI482
I1
sI483
I1
sI484
I7
sI485
I1
sI486
I1
sI487
I7
sI488
I15
sI489
I2
sI490
I1
sI491
I2
sI492
I6
sI493
I2
sI494
I1
sI495
I1
sI496
I2
sI497
I20
sI498
I2
sI499
I2
sI500
I1
sI501
I1
sI502
I1
sI503
I1
sI504
I2
sI505
I8
sI506
I4
sI507
I4
sI508
I4
sI509
I1
sI510
I1
sI511
I3
sI512
I7
sI513
I9
sI514
I10
sI515
I81
sI516
I9
sI517
I1
sI518
I2
sI519
I2
sI520
I1
sI521
I13
sI522
I1
sI523
I1
sI524
I2
sI525
I2
sI526
I24
sI527
I26
sI528
I2
sI529
I2
sI530
I1
sI531
I1
sI532
I3
sI533
I1
sI534
I3
sI535
I3
sI536
I6
sI537
I4
sI538
I9
sI539
I3
sI540
I1
sI541
I4
sI542
I1
sI543
I1
sI544
I11
sI545
I2
sI546
I8
sI547
I1
sI548
I2
sI549
I1
sI550
I9
sI551
I1
sI552
I1
sI553
I1
sI554
I1
sI555
I5
sI556
I1
sI557
I4
sI558
I1
sI559
I1
sI560
I1
sI561
I1
sI562
I1
sI563
I1
sI564
I1
sI565
I4
sI566
I1
sI567
I7
sI568
I1
sI569
I1
sI570
I1
sI571
I1
sI572
I1
sI573
I5
sI574
I1
sI575
I3
sI576
I2
sI577
I3
sI578
I12
sI579
I2
sI580
I2
sI581
I1
sI582
I1
sI583
I1
sI584
I2
sI585
I1
sI586
I1
sI587
I1
sI588
I1
sI589
I1
sI590
I1
sI591
I3
sI592
I4
sI593
I1
sI594
I1
sI595
I1
sI596
I1
sI597
I2
sI598
I1
sI599
I1
sI600
I1
sI601
I2
sI602
I1
sI603
I7
sI604
I1
sI605
I1
sI606
I2
sI607
I1
sI608
I1
sI609
I1
sI610
I1
sI611
I1
sI612
I1
sI613
I2
sI614
I4
sI615
I2
sI616
I8
sI617
I1
sI618
I1
sI619
I1
sI620
I1
sI621
I2
sI622
I1
sI623
I8
sI624
I14
sI625
I9
sI626
I18
sI627
I2
sI628
I1
sI629
I1
sI630
I1
sI631
I1
sI632
I1
sI633
I1
sI634
I1
sI635
I2
sI636
I1
sI637
I2
sI638
I1
sI639
I1
sI640
I1
sI641
I1
sI642
I3
sI643
I2
sI644
I4
sI645
I4
sI646
I1
sI647
I1
sI648
I24
sI649
I1
sI650
I1
sI651
I3
sI652
I7
sI653
I3
sI654
I9
sI655
I10
sI656
I3
sI657
I2
sI658
I10
sI659
I1
sI660
I9
sI661
I3
sI662
I4
sI663
I7
sI664
I7
sI665
I4
sI666
I3
sI667
I4
sI668
I1
sI669
I1
sI670
I1
sI671
I2
sI672
I7
sI673
I1
sI674
I1
sI675
I5
sI676
I1
sI677
I1
sI678
I4
sI679
I5
sI680
I6
sI681
I1
sI682
I1
sI683
I3
sI684
I3
sI685
I1
sI686
I1
sI687
I3
sI688
I2
sI689
I1
sI690
I1
sI691
I1
sI692
I1
sI693
I1
sI694
I1
sI695
I3
sI696
I3
sI697
I2
sI698
I2
sI699
I3
sI700
I10
sI701
I1
sI702
I2
sI703
I2
sI704
I1
sI705
I12
sI706
I2
sI707
I3
sI708
I13
sI709
I8
sI710
I6
sI711
I4
sI712
I1
sI713
I1
sI714
I3
sI715
I8
sI716
I1
sI717
I5
sI718
I2
sI719
I1
sI720
I3
sI721
I1
sI722
I1
sI723
I5
sI724
I1
sI725
I9
sI726
I1
sI727
I1
sI728
I2
sI729
I1
sI730
I2
sI731
I1
sI732
I1
sI733
I1
sI734
I1
sI735
I6
sI736
I1
sI737
I1
sI738
I12
sI739
I5
sI740
I6
sI741
I1
sI742
I2
sI743
I1
sI744
I1
sI745
I1
sI746
I1
sI747
I1
sI748
I4
sI749
I6
sI750
I1
sI751
I1
sI752
I3
sI753
I3
sI754
I2
sI755
I5
sI756
I1
sI757
I1
sI758
I2
sI759
I5
sI760
I8
sI761
I4
sI762
I4
sI763
I4
sI764
I4
sI765
I1
sI766
I1
sI767
I1
sI768
I1
sI769
I1
sI770
I3
sI771
I1
sI772
I3
sI773
I6
sI774
I2
sI775
I1
sI776
I22
sI777
I16
sI778
I4
sI779
I1
sI780
I1
sI781
I1
sI782
I1
sI783
I1
sI784
I2
sI785
I1
sI786
I1
sI787
I1
sI788
I16
sI789
I14
sI790
I3
sI791
I3
sI792
I3
sI793
I1
sI794
I1
sI795
I5
sI796
I1
sI797
I5
sI798
I9
sI799
I1
sI800
I1
sI801
I1
sI802
I1
sI803
I4
sI804
I1
sI805
I1
sI806
I1
sI807
I1
sI808
I16
sI809
I3
sI810
I2
sI811
I2
sI812
I1
sI813
I19
sI814
I3
sI815
I2
sI816
I2
sI817
I4
sI818
I1
sI819
I2
sI820
I9
sI821
I1
sI822
I1
sI823
I1
sI824
I1
sI825
I1
sI826
I2
sI827
I6
sI828
I3
sI829
I3
sI830
I1
sI831
I2
sI832
I2
sI833
I7
sI834
I3
sI835
I1
sI836
I1
sI837
I10
sI838
I1
sI839
I2
sI840
I2
sI841
I1
sI842
I1
sI843
I1
sI844
I3
sI845
I2
sI846
I1
sI847
I1
sI848
I2
sI849
I1
sI850
I1
sI851
I1
sI852
I1
sI853
I2
sI854
I1
sI855
I1
sI856
I1
sI857
I2
sI858
I3
sI859
I1
sI860
I1
sI861
I1
sI862
I2
sI863
I1
sI864
I1
sI865
I1
sI866
I3
sI867
I3
sI868
I1
sI869
I3
sI870
I1
sI871
I1
sI872
I1
sI873
I1
sI874
I1
sI875
I2
sI876
I2
sI877
I4
sI878
I1
sI879
I1
sI880
I1
sI881
I1
sI882
I1
sI883
I1
sI884
I1
sI885
I1
sI886
I1
sI887
I1
sI888
I1
sI889
I3
sI890
I1
sI891
I4
sI892
I6
sI893
I6
sI894
I1
sI895
I3
sI896
I2
sI897
I56
sI898
I1
sI899
I1
sI900
I2
sI901
I3
sI902
I36
sI903
I27
sI904
I27
sI905
I3
sI906
I1
sI907
I2
sI908
I2
sI909
I3
sI910
I1
sI911
I2
sI912
I1
sI913
I1
sI914
I1
sI915
I2
sI916
I1
sI917
I1
sI918
I1
sI919
I1
sI920
I3
sI921
I2
sI922
I1
sI923
I6
sI924
I3
sI925
I1
sI926
I1
sI927
I11
sI928
I4
sI929
I1
sI930
I2
sI931
I6
sI932
I4
sI933
I3
sI934
I2
sI935
I2
sI936
I1
sI937
I1
sI938
I4
sI939
I2
sI940
I3
sI941
I2
sI942
I8
sI943
I1
sI944
I1
sI945
I1
sI946
I4
sI947
I1
sI948
I2
sI949
I4
sI950
I91
sI951
I1
sI952
I1
sI953
I1
sI954
I1
sI955
I6
sI956
I1
sI957
I2
sI958
I1
sI959
I1
sI960
I1
sI961
I1
sI962
I2
sI963
I2
sI964
I1
sI965
I1
sI966
I1
sI967
I1
sI968
I1
sI969
I1
sI970
I1
sI971
I1
sI972
I1
sI973
I1
sI974
I1
sI975
I1
sI976
I23
sI977
I2
sI978
I1
sI979
I1
sI980
I2
sI981
I1
sI982
I2
sI983
I1
sI984
I1
sI985
I23
sI986
I2
sI987
I1
sI988
I1
sI989
I1
sI990
I1
sI991
I1
sI992
I1
sI993
I1
sI994
I1
sI995
I5
sI996
I1
sI997
I1
sI998
I1
sI999
I2
sI1000
I2
sI1001
I1
sI1002
I1
sI1003
I2
sI1004
I1
sI1005
I1
sI1006
I28
sI1007
I7
sI1008
I26
sI1009
I5
sI1010
I1
sI1011
I1
sI1012
I9
sI1013
I5
sI1014
I2
sI1015
I2
sI1016
I1
sI1017
I1
sI1018
I7
sI1019
I3
sI1020
I1
sI1021
I3
sI1022
I1
sI1023
I2
sI1024
I1
sI1025
I1
sI1026
I2
sI1027
I1
sI1028
I32
sI1029
I1
sI1030
I1
sI1031
I9
sI1032
I2
sI1033
I1
sI1034
I1
sI1035
I2
sI1036
I3
sI1037
I1
sI1038
I7
sI1039
I1
sI1040
I2
sI1041
I3
sI1042
I2
sI1043
I6
sI1044
I1
sI1045
I2
sI1046
I1
sI1047
I1
sI1048
I1
sI1049
I1
sI1050
I1
sI1051
I4
sI1052
I1
sI1053
I1
sI1054
I2
sI1055
I1
sI1056
I3
sI1057
I4
sI1058
I1
sI1059
I1
sI1060
I1
sI1061
I3
sI1062
I1
sI1063
I1
sI1064
I4
sI1065
I8
sI1066
I13
sI1067
I14
sI1068
I1
sI1069
I1
sI1070
I1
sI1071
I1
sI1072
I3
sI1073
I1
sI1074
I11
sI1075
I1
sI1076
I1
sI1077
I1
sI1078
I1
sI1079
I1
sI1080
I1
sI1081
I1
sI1082
I1
sI1083
I1
sI1084
I1
sI1085
I1
sI1086
I3
sI1087
I3
sI1088
I1
sI1089
I2
sI1090
I1
sI1091
I1
sI1092
I1
sI1093
I1
sI1094
I1
sI1095
I1
sI1096
I1
sI1097
I1
sI1098
I1
sI1099
I2
sI1100
I1
sI1101
I1
sI1102
I1
sI1103
I2
sI1104
I3
sI1105
I1
sI1106
I16
sI1107
I1
sI1108
I1
sI1109
I1
sI1110
I1
sI1111
I1
sI1112
I1
sI1113
I2
sI1114
I1
sI1115
I1
sI1116
I1
sI1117
I2
sI1118
I1
sI1119
I2
sI1120
I3
sI1121
I3
sI1122
I3
sI1123
I3
sI1124
I2
sI1125
I1
sI1126
I1
sI1127
I2
sI1128
I2
sI1129
I1
sI1130
I1
sI1131
I2
sI1132
I2
sI1133
I5
sI1134
I5
sI1135
I4
sI1136
I1
ssS'num_nnz'
p1148
I7820
sS'id2token'
p1149
(dp1150
sS'num_pos'
p1151
I7888
sb.