ccopy_reg
_reconstructor
p0
(cgensim.models.tfidfmodel
TfidfModel
p1
c__builtin__
object
p2
Ntp3
Rp4
(dp5
S'normalize'
p6
I01
sS'idfs'
p7
(dp8
I0
F4.072627800087398
sI1
F9.596189756144412
sI2
F2.8017738897943043
sI3
F3.057030945036379
sI4
F2.937978273392616
sI5
F6.426264754702098
sI6
F10.596189756144412
sI7
F8.011227255423254
sI8
F8.59618975614441
sI9
F5.136758137507114
sI10
F7.788834834086806
sI11
F4.011227255423254
sI12
F10.596189756144412
sI13
F2.421264073643732
sI14
F9.011227255423254
sI15
F4.868269301581211
sI16
F7.274261661257048
sI17
F9.596189756144412
sI18
F6.20387233336565
sI19
F4.104336659814735
sI20
F3.2386377515263267
sI21
F4.057030945036379
sI22
F9.596189756144412
sI23
F3.7506997052000357
sI24
F6.20387233336565
sI25
F6.274261661257048
sI26
F6.274261661257048
sI27
F10.596189756144412
sI28
F6.895750038003318
sI29
F4.487665299366242
sI30
F6.426264754702098
sI31
F7.136758137507114
sI32
F7.011227255423254
sI33
F6.689299160535892
sI34
F5.59618975614441
sI35
F5.641993445757535
sI36
F5.041600904466773
sI37
F7.426264754702098
sI38
F9.596189756144412
sI39
F9.011227255423254
sI40
F7.788834834086806
sI41
F4.386736390515461
sI42
F8.011227255423254
sI43
F5.689299160535892
sI44
F8.274261661257048
sI45
F5.952333566369686
sI46
F9.596189756144412
sI47
F9.011227255423254
sI48
F10.596189756144412
sI49
F9.011227255423254
sI50
F5.041600904466773
sI51
F6.20387233336565
sI52
F10.596189756144412
sI53
F8.59618975614441
sI54
F5.011227255423255
sI55
F4.713546706782569
sI56
F5.169925001442312
sI57
F7.596189756144411
sI58
F5.641993445757535
sI59
F4.057030945036379
sI60
F5.895750038003318
sI61
F5.104336659814736
sI62
F5.386736390515461
sI63
F6.011227255423254
sI64
F5.895750038003318
sI65
F7.426264754702098
sI66
F6.426264754702098
sI67
F4.689299160535892
sI68
F10.596189756144412
sI69
F6.426264754702098
sI70
F7.274261661257048
sI71
F6.895750038003318
sI72
F9.596189756144412
sI73
F6.508726914894072
sI74
F7.596189756144411
sI75
F6.426264754702098
sI76
F9.596189756144412
sI77
F7.788834834086806
sI78
F9.596189756144412
sI79
F9.596189756144412
sI80
F9.011227255423254
sI81
F9.011227255423254
sI82
F7.274261661257048
sI83
F6.072627800087398
sI84
F7.596189756144411
sI85
F6.426264754702098
sI86
F9.011227255423254
sI87
F9.011227255423254
sI88
F7.596189756144411
sI89
F6.136758137507114
sI90
F9.011227255423254
sI91
F9.596189756144412
sI92
F9.596189756144412
sI93
F6.508726914894072
sI94
F10.596189756144412
sI95
F7.596189756144411
sI96
F10.596189756144412
sI97
F7.596189756144411
sI98
F9.596189756144412
sI99
F9.596189756144412
sI100
F8.011227255423254
sI101
F7.788834834086806
sI102
F8.59618975614441
sI103
F9.011227255423254
sI104
F8.011227255423254
sI105
F4.310787537282162
sI106
F10.596189756144412
sI107
F8.011227255423254
sI108
F10.596189756144412
sI109
F10.596189756144412
sI110
F7.788834834086806
sI111
F7.274261661257048
sI112
F9.596189756144412
sI113
F10.596189756144412
sI114
F8.59618975614441
sI115
F8.011227255423254
sI116
F5.59618975614441
sI117
F10.596189756144412
sI118
F8.274261661257048
sI119
F10.596189756144412
sI120
F7.274261661257048
sI121
F7.426264754702098
sI122
F10.596189756144412
sI123
F10.596189756144412
sI124
F9.011227255423254
sI125
F7.596189756144411
sI126
F10.596189756144412
sI127
F8.274261661257048
sI128
F5.508726914894071
sI129
F6.689299160535892
sI130
F10.596189756144412
sI131
F10.596189756144412
sI132
F6.788834834086806
sI133
F7.596189756144411
sI134
F10.596189756144412
sI135
F10.596189756144412
sI136
F7.788834834086806
sI137
F8.59618975614441
sI138
F9.011227255423254
sI139
F8.274261661257048
sI140
F9.011227255423254
sI141
F7.011227255423254
sI142
F9.596189756144412
sI143
F7.274261661257048
sI144
F9.596189756144412
sI145
F5.59618975614441
sI146
F8.011227255423254
sI147
F8.011227255423254
sI148
F6.895750038003318
sI149
F9.596189756144412
sI150
F9.011227255423254
sI151
F10.596189756144412
sI152
F10.596189756144412
sI153
F6.20387233336565
sI154
F9.596189756144412
sI155
F10.596189756144412
sI156
F10.596189756144412
sI157
F6.072627800087398
sI158
F7.788834834086806
sI159
F6.426264754702098
sI160
F10.596189756144412
sI161
F7.011227255423254
sI162
F6.426264754702098
sI163
F6.895750038003318
sI164
F6.072627800087398
sI165
F10.596189756144412
sI166
F10.596189756144412
sI167
F6.689299160535892
sI168
F10.596189756144412
sI169
F10.596189756144412
sI170
F5.274261661257048
sI171
F9.596189756144412
sI172
F7.011227255423254
sI173
F9.011227255423254
sI174
F6.59618975614441
sI175
F10.596189756144412
sI176
F9.011227255423254
sI177
F8.59618975614441
sI178
F6.788834834086806
sI179
F10.596189756144412
sI180
F10.596189756144412
sI181
F9.596189756144412
sI182
F5.386736390515461
sI183
F6.59618975614441
sI184
F6.274261661257048
sI185
F8.274261661257048
sI186
F5.952333566369686
sI187
F7.136758137507114
sI188
F5.104336659814736
sI189
F10.596189756144412
sI190
F8.011227255423254
sI191
F5.641993445757535
sI192
F7.426264754702098
sI193
F4.952333566369686
sI194
F8.011227255423254
sI195
F7.011227255423254
sI196
F10.596189756144412
sI197
F9.011227255423254
sI198
F8.011227255423254
sI199
F8.274261661257048
sI200
F9.011227255423254
sI201
F7.788834834086806
sI202
F9.011227255423254
sI203
F7.136758137507114
sI204
F9.011227255423254
sI205
F9.011227255423254
sI206
F9.596189756144412
sI207
F4.59618975614441
sI208
F8.011227255423254
sI209
F7.274261661257048
sI210
F10.596189756144412
sI211
F8.011227255423254
sI212
F10.596189756144412
sI213
F10.596189756144412
sI214
F7.596189756144411
sI215
F8.59618975614441
sI216
F3.508726914894071
sI217
F6.348262242700825
sI218
F8.011227255423254
sI219
F7.426264754702098
sI220
F10.596189756144412
sI221
F9.596189756144412
sI222
F10.596189756144412
sI223
F5.041600904466773
sI224
F10.596189756144412
sI225
F7.136758137507114
sI226
F8.59618975614441
sI227
F8.59618975614441
sI228
F7.136758137507114
sI229
F10.596189756144412
sI230
F7.011227255423254
sI231
F8.274261661257048
sI232
F9.596189756144412
sI233
F9.596189756144412
sI234
F9.596189756144412
sI235
F9.011227255423254
sI236
F10.596189756144412
sI237
F8.274261661257048
sI238
F8.274261661257048
sI239
F9.011227255423254
sI240
F7.788834834086806
sI241
F10.596189756144412
sI242
F10.596189756144412
sI243
F10.596189756144412
sI244
F6.788834834086806
sI245
F10.596189756144412
sI246
F9.011227255423254
sI247
F10.596189756144412
sI248
F10.596189756144412
sI249
F7.596189756144411
sI250
F8.59618975614441
sI251
F6.788834834086806
sI252
F8.59618975614441
sI253
F10.596189756144412
sI254
F9.011227255423254
sI255
F6.59618975614441
sI256
F10.596189756144412
sI257
F8.59618975614441
sI258
F7.788834834086806
sI259
F7.011227255423254
sI260
F6.426264754702098
sI261
F9.596189756144412
sI262
F10.596189756144412
sI263
F9.596189756144412
sI264
F10.596189756144412
sI265
F9.596189756144412
sI266
F5.738208761016839
sI267
F8.59618975614441
sI268
F9.596189756144412
sI269
F6.072627800087398
sI270
F7.274261661257048
sI271
F9.596189756144412
sI272
F6.508726914894072
sI273
F6.20387233336565
sI274
F6.508726914894072
sI275
F8.274261661257048
sI276
F5.689299160535892
sI277
F8.59618975614441
sI278
F10.596189756144412
sI279
F8.274261661257048
sI280
F9.011227255423254
sI281
F10.596189756144412
sI282
F5.841302253980943
sI283
F10.596189756144412
sI284
F9.596189756144412
sI285
F6.788834834086806
sI286
F8.274261661257048
sI287
F7.274261661257048
sI288
F5.952333566369686
sI289
F6.426264754702098
sI290
F10.596189756144412
sI291
F8.011227255423254
sI292
F6.011227255423254
sI293
F6.508726914894072
sI294
F6.20387233336565
sI295
F8.59618975614441
sI296
F8.011227255423254
sI297
F8.011227255423254
sI298
F6.426264754702098
sI299
F7.596189756144411
sI300
F8.274261661257048
sI301
F9.011227255423254
sI302
F8.274261661257048
sI303
F9.011227255423254
sI304
F10.596189756144412
sI305
F10.596189756144412
sI306
F7.011227255423254
sI307
F6.508726914894072
sI308
F10.596189756144412
sI309
F10.596189756144412
sI310
F10.596189756144412
sI311
F10.596189756144412
sI312
F9.596189756144412
sI313
F8.011227255423254
sI314
F9.596189756144412
sI315
F8.274261661257048
sI316
F7.274261661257048
sI317
F10.596189756144412
sI318
F8.59618975614441
sI319
F10.596189756144412
sI320
F9.596189756144412
sI321
F7.596189756144411
sI322
F7.788834834086806
sI323
F9.596189756144412
sI324
F10.596189756144412
sI325
F10.596189756144412
sI326
F10.596189756144412
sI327
F10.596189756144412
sI328
F10.596189756144412
sI329
F10.596189756144412
sI330
F9.596189756144412
sI331
F9.596189756144412
sI332
F9.596189756144412
sI333
F7.426264754702098
sI334
F9.011227255423254
sI335
F10.596189756144412
sI336
F10.596189756144412
sI337
F10.596189756144412
sI338
F10.596189756144412
sI339
F10.596189756144412
sI340
F4.713546706782569
sI341
F10.596189756144412
sI342
F10.596189756144412
sI343
F10.596189756144412
sI344
F5.508726914894071
sI345
F10.596189756144412
sI346
F10.596189756144412
sI347
F9.596189756144412
sI348
F10.596189756144412
sI349
F10.596189756144412
sI350
F8.011227255423254
sI351
F10.596189756144412
sI352
F10.596189756144412
sI353
F10.596189756144412
sI354
F6.426264754702098
sI355
F10.596189756144412
sI356
F9.011227255423254
sI357
F9.011227255423254
sI358
F9.596189756144412
sI359
F8.59618975614441
sI360
F9.011227255423254
sI361
F10.596189756144412
sI362
F10.596189756144412
sI363
F10.596189756144412
sI364
F7.596189756144411
sI365
F9.011227255423254
sI366
F9.011227255423254
sI367
F7.011227255423254
sI368
F10.596189756144412
sI369
F9.596189756144412
sI370
F9.596189756144412
sI371
F10.596189756144412
sI372
F7.426264754702098
sI373
F9.596189756144412
sI374
F9.011227255423254
sI375
F8.59618975614441
sI376
F10.596189756144412
sI377
F5.310787537282162
sI378
F8.59618975614441
sI379
F7.788834834086806
sI380
F8.274261661257048
sI381
F9.011227255423254
sI382
F9.596189756144412
sI383
F7.011227255423254
sI384
F8.274261661257048
sI385
F10.596189756144412
sI386
F10.596189756144412
sI387
F8.59618975614441
sI388
F9.011227255423254
sI389
F9.596189756144412
sI390
F9.596189756144412
sI391
F9.011227255423254
sI392
F10.596189756144412
sI393
F10.596189756144412
sI394
F9.596189756144412
sI395
F7.788834834086806
sI396
F10.596189756144412
sI397
F10.596189756144412
sI398
F9.596189756144412
sI399
F9.596189756144412
sI400
F9.011227255423254
sI401
F10.596189756144412
sI402
F8.59618975614441
sI403
F8.59618975614441
sI404
F7.426264754702098
sI405
F10.596189756144412
sI406
F10.596189756144412
sI407
F10.596189756144412
sI408
F9.596189756144412
sI409
F10.596189756144412
sI410
F9.596189756144412
sI411
F10.596189756144412
sI412
F10.596189756144412
sI413
F8.59618975614441
sI414
F10.596189756144412
sI415
F10.596189756144412
sI416
F9.596189756144412
sI417
F9.596189756144412
sI418
F10.596189756144412
sI419
F6.689299160535892
sI420
F10.596189756144412
sI421
F10.596189756144412
sI422
F10.596189756144412
sI423
F6.426264754702098
sI424
F10.596189756144412
sI425
F10.596189756144412
sI426
F9.596189756144412
sI427
F10.596189756144412
sI428
F9.596189756144412
sI429
F7.596189756144411
sI430
F8.59618975614441
sI431
F9.596189756144412
sI432
F8.274261661257048
sI433
F10.596189756144412
sI434
F10.596189756144412
sI435
F10.596189756144412
sI436
F10.596189756144412
sI437
F10.596189756144412
sI438
F10.596189756144412
sI439
F10.596189756144412
sI440
F9.011227255423254
sI441
F10.596189756144412
sI442
F10.596189756144412
sI443
F9.011227255423254
sI444
F10.596189756144412
sI445
F10.596189756144412
sI446
F10.596189756144412
sI447
F10.596189756144412
sI448
F9.596189756144412
sI449
F10.596189756144412
sI450
F10.596189756144412
sI451
F9.596189756144412
sI452
F10.596189756144412
sI453
F10.596189756144412
sI454
F10.596189756144412
sI455
F9.596189756144412
sI456
F9.596189756144412
sI457
F10.596189756144412
sI458
F10.596189756144412
sI459
F10.596189756144412
sI460
F9.596189756144412
sI461
F10.596189756144412
sI462
F7.274261661257048
sI463
F6.59618975614441
sI464
F6.426264754702098
sI465
F9.596189756144412
sI466
F10.596189756144412
sI467
F10.596189756144412
sI468
F8.274261661257048
sI469
F6.788834834086806
sI470
F9.596189756144412
sI471
F10.596189756144412
sI472
F9.011227255423254
sI473
F10.596189756144412
sI474
F10.596189756144412
sI475
F10.596189756144412
sI476
F10.596189756144412
sI477
F10.596189756144412
sI478
F10.596189756144412
sI479
F10.596189756144412
sI480
F10.596189756144412
sI481
F10.596189756144412
sI482
F10.596189756144412
sI483
F10.596189756144412
sI484
F7.788834834086806
sI485
F10.596189756144412
sI486
F10.596189756144412
sI487
F7.788834834086806
sI488
F6.689299160535892
sI489
F9.596189756144412
sI490
F10.596189756144412
sI491
F9.596189756144412
sI492
F8.011227255423254
sI493
F9.596189756144412
sI494
F10.596189756144412
sI495
F10.596189756144412
sI496
F9.596189756144412
sI497
F6.274261661257048
sI498
F9.596189756144412
sI499
F9.596189756144412
sI500
F10.596189756144412
sI501
F10.596189756144412
sI502
F10.596189756144412
sI503
F10.596189756144412
sI504
F9.596189756144412
sI505
F7.596189756144411
sI506
F8.59618975614441
sI507
F8.59618975614441
sI508
F8.59618975614441
sI509
F10.596189756144412
sI510
F10.596189756144412
sI511
F9.011227255423254
sI512
F7.788834834086806
sI513
F7.426264754702098
sI514
F7.274261661257048
sI515
F4.256339753259786
sI516
F7.426264754702098
sI517
F10.596189756144412
sI518
F9.596189756144412
sI519
F9.596189756144412
sI520
F10.596189756144412
sI521
F6.895750038003318
sI522
F10.596189756144412
sI523
F10.596189756144412
sI524
F9.596189756144412
sI525
F9.596189756144412
sI526
F6.011227255423254
sI527
F5.895750038003318
sI528
F9.596189756144412
sI529
F9.596189756144412
sI530
F10.596189756144412
sI531
F10.596189756144412
sI532
F9.011227255423254
sI533
F10.596189756144412
sI534
F9.011227255423254
sI535
F9.011227255423254
sI536
F8.011227255423254
sI537
F8.59618975614441
sI538
F7.426264754702098
sI539
F9.011227255423254
sI540
F10.596189756144412
sI541
F8.59618975614441
sI542
F10.596189756144412
sI543
F10.596189756144412
sI544
F7.136758137507114
sI545
F9.596189756144412
sI546
F7.596189756144411
sI547
F10.596189756144412
sI548
F9.596189756144412
sI549
F10.596189756144412
sI550
F7.426264754702098
sI551
F10.596189756144412
sI552
F10.596189756144412
sI553
F10.596189756144412
sI554
F10.596189756144412
sI555
F8.274261661257048
sI556
F10.596189756144412
sI557
F8.59618975614441
sI558
F10.596189756144412
sI559
F10.596189756144412
sI560
F10.596189756144412
sI561
F10.596189756144412
sI562
F10.596189756144412
sI563
F10.596189756144412
sI564
F10.596189756144412
sI565
F8.59618975614441
sI566
F10.596189756144412
sI567
F7.788834834086806
sI568
F10.596189756144412
sI569
F10.596189756144412
sI570
F10.596189756144412
sI571
F10.596189756144412
sI572
F10.596189756144412
sI573
F8.274261661257048
sI574
F10.596189756144412
sI575
F9.011227255423254
sI576
F9.596189756144412
sI577
F9.011227255423254
sI578
F7.011227255423254
sI579
F9.596189756144412
sI580
F9.596189756144412
sI581
F10.596189756144412
sI582
F10.596189756144412
sI583
F10.596189756144412
sI584
F9.596189756144412
sI585
F10.596189756144412
sI586
F10.596189756144412
sI587
F10.596189756144412
sI588
F10.596189756144412
sI589
F10.596189756144412
sI590
F10.596189756144412
sI591
F9.011227255423254
sI592
F8.59618975614441
sI593
F10.596189756144412
sI594
F10.596189756144412
sI595
F10.596189756144412
sI596
F10.596189756144412
sI597
F9.596189756144412
sI598
F10.596189756144412
sI599
F10.596189756144412
sI600
F10.596189756144412
sI601
F9.596189756144412
sI602
F10.596189756144412
sI603
F7.788834834086806
sI604
F10.596189756144412
sI605
F10.596189756144412
sI606
F9.596189756144412
sI607
F10.596189756144412
sI608
F10.596189756144412
sI609
F10.596189756144412
sI610
F10.596189756144412
sI611
F10.596189756144412
sI612
F10.596189756144412
sI613
F9.596189756144412
sI614
F8.59618975614441
sI615
F9.596189756144412
sI616
F7.596189756144411
sI617
F10.596189756144412
sI618
F10.596189756144412
sI619
F10.596189756144412
sI620
F10.596189756144412
sI621
F9.596189756144412
sI622
F10.596189756144412
sI623
F7.596189756144411
sI624
F6.788834834086806
sI625
F7.426264754702098
sI626
F6.426264754702098
sI627
F9.596189756144412
sI628
F10.596189756144412
sI629
F10.596189756144412
sI630
F10.596189756144412
sI631
F10.596189756144412
sI632
F10.596189756144412
sI633
F10.596189756144412
sI634
F10.596189756144412
sI635
F9.596189756144412
sI636
F10.596189756144412
sI637
F9.596189756144412
sI638
F10.596189756144412
sI639
F10.596189756144412
sI640
F10.596189756144412
sI641
F10.596189756144412
sI642
F9.011227255423254
sI643
F9.596189756144412
sI644
F8.59618975614441
sI645
F8.59618975614441
sI646
F10.596189756144412
sI647
F10.596189756144412
sI648
F6.011227255423254
sI649
F10.596189756144412
sI650
F10.596189756144412
sI651
F9.011227255423254
sI652
F7.788834834086806
sI653
F9.011227255423254
sI654
F7.426264754702098
sI655
F7.274261661257048
sI656
F9.011227255423254
sI657
F9.596189756144412
sI658
F7.274261661257048
sI659
F10.596189756144412
sI660
F7.426264754702098
sI661
F9.011227255423254
sI662
F8.59618975614441
sI663
F7.788834834086806
sI664
F7.788834834086806
sI665
F8.59618975614441
sI666
F9.011227255423254
sI667
F8.59618975614441
sI668
F10.596189756144412
sI669
F10.596189756144412
sI670
F10.596189756144412
sI671
F9.596189756144412
sI672
F7.788834834086806
sI673
F10.596189756144412
sI674
F10.596189756144412
sI675
F8.274261661257048
sI676
F10.596189756144412
sI677
F10.596189756144412
sI678
F8.59618975614441
sI679
F8.274261661257048
sI680
F8.011227255423254
sI681
F10.596189756144412
sI682
F10.596189756144412
sI683
F9.011227255423254
sI684
F9.011227255423254
sI685
F10.596189756144412
sI686
F10.596189756144412
sI687
F9.011227255423254
sI688
F9.596189756144412
sI689
F10.596189756144412
sI690
F10.596189756144412
sI691
F10.596189756144412
sI692
F10.596189756144412
sI693
F10.596189756144412
sI694
F10.596189756144412
sI695
F9.011227255423254
sI696
F9.011227255423254
sI697
F9.596189756144412
sI698
F9.596189756144412
sI699
F9.011227255423254
sI700
F7.274261661257048
sI701
F10.596189756144412
sI702
F9.596189756144412
sI703
F9.596189756144412
sI704
F10.596189756144412
sI705
F7.011227255423254
sI706
F9.596189756144412
sI707
F9.011227255423254
sI708
F6.895750038003318
sI709
F7.596189756144411
sI710
F8.011227255423254
sI711
F8.59618975614441
sI712
F10.596189756144412
sI713
F10.596189756144412
sI714
F9.011227255423254
sI715
F7.596189756144411
sI716
F10.596189756144412
sI717
F8.274261661257048
sI718
F9.596189756144412
sI719
F10.596189756144412
sI720
F9.011227255423254
sI721
F10.596189756144412
sI722
F10.596189756144412
sI723
F8.274261661257048
sI724
F10.596189756144412
sI725
F7.426264754702098
sI726
F10.596189756144412
sI727
F10.596189756144412
sI728
F9.596189756144412
sI729
F10.596189756144412
sI730
F9.596189756144412
sI731
F10.596189756144412
sI732
F10.596189756144412
sI733
F10.596189756144412
sI734
F10.596189756144412
sI735
F8.011227255423254
sI736
F10.596189756144412
sI737
F10.596189756144412
sI738
F7.011227255423254
sI739
F8.274261661257048
sI740
F8.011227255423254
sI741
F10.596189756144412
sI742
F9.596189756144412
sI743
F10.596189756144412
sI744
F10.596189756144412
sI745
F10.596189756144412
sI746
F10.596189756144412
sI747
F10.596189756144412
sI748
F8.59618975614441
sI749
F8.011227255423254
sI750
F10.596189756144412
sI751
F10.596189756144412
sI752
F9.011227255423254
sI753
F9.011227255423254
sI754
F9.596189756144412
sI755
F8.274261661257048
sI756
F10.596189756144412
sI757
F10.596189756144412
sI758
F9.596189756144412
sI759
F8.274261661257048
sI760
F7.596189756144411
sI761
F8.59618975614441
sI762
F8.59618975614441
sI763
F8.59618975614441
sI764
F8.59618975614441
sI765
F10.596189756144412
sI766
F10.596189756144412
sI767
F10.596189756144412
sI768
F10.596189756144412
sI769
F10.596189756144412
sI770
F9.011227255423254
sI771
F10.596189756144412
sI772
F9.011227255423254
sI773
F8.011227255423254
sI774
F9.596189756144412
sI775
F10.596189756144412
sI776
F6.136758137507114
sI777
F6.59618975614441
sI778
F8.59618975614441
sI779
F10.596189756144412
sI780
F10.596189756144412
sI781
F10.596189756144412
sI782
F10.596189756144412
sI783
F10.596189756144412
sI784
F9.596189756144412
sI785
F10.596189756144412
sI786
F10.596189756144412
sI787
F10.596189756144412
sI788
F6.59618975614441
sI789
F6.788834834086806
sI790
F9.011227255423254
sI791
F9.011227255423254
sI792
F9.011227255423254
sI793
F10.596189756144412
sI794
F10.596189756144412
sI795
F8.274261661257048
sI796
F10.596189756144412
sI797
F8.274261661257048
sI798
F7.426264754702098
sI799
F10.596189756144412
sI800
F10.596189756144412
sI801
F10.596189756144412
sI802
F10.596189756144412
sI803
F8.59618975614441
sI804
F10.596189756144412
sI805
F10.596189756144412
sI806
F10.596189756144412
sI807
F10.596189756144412
sI808
F6.59618975614441
sI809
F9.011227255423254
sI810
F9.596189756144412
sI811
F9.596189756144412
sI812
F10.596189756144412
sI813
F6.348262242700825
sI814
F9.011227255423254
sI815
F9.596189756144412
sI816
F9.596189756144412
sI817
F8.59618975614441
sI818
F10.596189756144412
sI819
F9.596189756144412
sI820
F7.426264754702098
sI821
F10.596189756144412
sI822
F10.596189756144412
sI823
F10.596189756144412
sI824
F10.596189756144412
sI825
F10.596189756144412
sI826
F9.596189756144412
sI827
F8.011227255423254
sI828
F9.011227255423254
sI829
F9.011227255423254
sI830
F10.596189756144412
sI831
F9.596189756144412
sI832
F9.596189756144412
sI833
F7.788834834086806
sI834
F9.011227255423254
sI835
F10.596189756144412
sI836
F10.596189756144412
sI837
F7.274261661257048
sI838
F10.596189756144412
sI839
F9.596189756144412
sI840
F9.596189756144412
sI841
F10.596189756144412
sI842
F10.596189756144412
sI843
F10.596189756144412
sI844
F9.011227255423254
sI845
F9.596189756144412
sI846
F10.596189756144412
sI847
F10.596189756144412
sI848
F9.596189756144412
sI849
F10.596189756144412
sI850
F10.596189756144412
sI851
F10.596189756144412
sI852
F10.596189756144412
sI853
F9.596189756144412
sI854
F10.596189756144412
sI855
F10.596189756144412
sI856
F10.596189756144412
sI857
F9.596189756144412
sI858
F9.011227255423254
sI859
F10.596189756144412
sI860
F10.596189756144412
sI861
F10.596189756144412
sI862
F9.596189756144412
sI863
F10.596189756144412
sI864
F10.596189756144412
sI865
F10.596189756144412
sI866
F9.011227255423254
sI867
F9.011227255423254
sI868
F10.596189756144412
sI869
F9.011227255423254
sI870
F10.596189756144412
sI871
F10.596189756144412
sI872
F10.596189756144412
sI873
F10.596189756144412
sI874
F10.596189756144412
sI875
F9.596189756144412
sI876
F9.596189756144412
sI877
F8.59618975614441
sI878
F10.596189756144412
sI879
F10.596189756144412
sI880
F10.596189756144412
sI881
F10.596189756144412
sI882
F10.596189756144412
sI883
F10.596189756144412
sI884
F10.596189756144412
sI885
F10.596189756144412
sI886
F10.596189756144412
sI887
F10.596189756144412
sI888
F10.596189756144412
sI889
F9.011227255423254
sI890
F10.596189756144412
sI891
F8.59618975614441
sI892
F8.011227255423254
sI893
F8.011227255423254
sI894
F10.596189756144412
sI895
F9.011227255423254
sI896
F9.596189756144412
sI897
F4.788834834086806
sI898
F10.596189756144412
sI899
F10.596189756144412
sI900
F9.596189756144412
sI901
F9.011227255423254
sI902
F5.426264754702098
sI903
F5.841302253980943
sI904
F5.841302253980943
sI905
F9.011227255423254
sI906
F10.596189756144412
sI907
F9.596189756144412
sI908
F9.596189756144412
sI909
F9.011227255423254
sI910
F10.596189756144412
sI911
F9.596189756144412
sI912
F10.596189756144412
sI913
F10.596189756144412
sI914
F10.596189756144412
sI915
F9.596189756144412
sI916
F10.596189756144412
sI917
F10.596189756144412
sI918
F10.596189756144412
sI919
F10.596189756144412
sI920
F9.011227255423254
sI921
F9.596189756144412
sI922
F10.596189756144412
sI923
F8.011227255423254
sI924
F9.011227255423254
sI925
F10.596189756144412
sI926
F10.596189756144412
sI927
F7.136758137507114
sI928
F8.59618975614441
sI929
F10.596189756144412
sI930
F9.596189756144412
sI931
F8.011227255423254
sI932
F8.59618975614441
sI933
F9.011227255423254
sI934
F9.596189756144412
sI935
F9.596189756144412
sI936
F10.596189756144412
sI937
F10.596189756144412
sI938
F8.59618975614441
sI939
F9.596189756144412
sI940
F9.011227255423254
sI941
F9.596189756144412
sI942
F7.596189756144411
sI943
F10.596189756144412
sI944
F10.596189756144412
sI945
F10.596189756144412
sI946
F8.59618975614441
sI947
F10.596189756144412
sI948
F9.596189756144412
sI949
F8.59618975614441
sI950
F4.088395115945715
sI951
F10.596189756144412
sI952
F10.596189756144412
sI953
F10.596189756144412
sI954
F10.596189756144412
sI955
F8.011227255423254
sI956
F10.596189756144412
sI957
F9.596189756144412
sI958
F10.596189756144412
sI959
F10.596189756144412
sI960
F10.596189756144412
sI961
F10.596189756144412
sI962
F9.596189756144412
sI963
F9.596189756144412
sI964
F10.596189756144412
sI965
F10.596189756144412
sI966
F10.596189756144412
sI967
F10.596189756144412
sI968
F10.596189756144412
sI969
F10.596189756144412
sI970
F10.596189756144412
sI971
F10.596189756144412
sI972
F10.596189756144412
sI973
F10.596189756144412
sI974
F10.596189756144412
sI975
F10.596189756144412
sI976
F6.072627800087398
sI977
F9.596189756144412
sI978
F10.596189756144412
sI979
F10.596189756144412
sI980
F9.596189756144412
sI981
F10.596189756144412
sI982
F9.596189756144412
sI983
F10.596189756144412
sI984
F10.596189756144412
sI985
F6.072627800087398
sI986
F9.596189756144412
sI987
F10.596189756144412
sI988
F10.596189756144412
sI989
F10.596189756144412
sI990
F10.596189756144412
sI991
F10.596189756144412
sI992
F10.596189756144412
sI993
F10.596189756144412
sI994
F10.596189756144412
sI995
F8.274261661257048
sI996
F10.596189756144412
sI997
F10.596189756144412
sI998
F10.596189756144412
sI999
F9.596189756144412
sI1000
F9.596189756144412
sI1001
F10.596189756144412
sI1002
F10.596189756144412
sI1003
F9.596189756144412
sI1004
F10.596189756144412
sI1005
F10.596189756144412
sI1006
F5.788834834086806
sI1007
F7.788834834086806
sI1008
F5.895750038003318
sI1009
F8.274261661257048
sI1010
F10.596189756144412
sI1011
F10.596189756144412
sI1012
F7.426264754702098
sI1013
F8.274261661257048
sI1014
F9.596189756144412
sI1015
F9.596189756144412
sI1016
F10.596189756144412
sI1017
F10.596189756144412
sI1018
F7.788834834086806
sI1019
F9.011227255423254
sI1020
F10.596189756144412
sI1021
F9.011227255423254
sI1022
F10.596189756144412
sI1023
F9.596189756144412
sI1024
F10.596189756144412
sI1025
F10.596189756144412
sI1026
F9.596189756144412
sI1027
F10.596189756144412
sI1028
F5.59618975614441
sI1029
F10.596189756144412
sI1030
F10.596189756144412
sI1031
F7.426264754702098
sI1032
F9.596189756144412
sI1033
F10.596189756144412
sI1034
F10.596189756144412
sI1035
F9.596189756144412
sI1036
F9.011227255423254
sI1037
F10.596189756144412
sI1038
F7.788834834086806
sI1039
F10.596189756144412
sI1040
F9.596189756144412
sI1041
F9.011227255423254
sI1042
F9.596189756144412
sI1043
F8.011227255423254
sI1044
F10.596189756144412
sI1045
F9.596189756144412
sI1046
F10.596189756144412
sI1047
F10.596189756144412
sI1048
F10.596189756144412
sI1049
F10.596189756144412
sI1050
F10.596189756144412
sI1051
F8.59618975614441
sI1052
F10.596189756144412
sI1053
F10.596189756144412
sI1054
F9.596189756144412
sI1055
F10.596189756144412
sI1056
F9.011227255423254
sI1057
F8.59618975614441
sI1058
F10.596189756144412
sI1059
F10.596189756144412
sI1060
F10.596189756144412
sI1061
F9.011227255423254
sI1062
F10.596189756144412
sI1063
F10.596189756144412
sI1064
F8.59618975614441
sI1065
F7.596189756144411
sI1066
F6.895750038003318
sI1067
F6.788834834086806
sI1068
F10.596189756144412
sI1069
F10.596189756144412
sI1070
F10.596189756144412
sI1071
F10.596189756144412
sI1072
F9.011227255423254
sI1073
F10.596189756144412
sI1074
F7.136758137507114
sI1075
F10.596189756144412
sI1076
F10.596189756144412
sI1077
F10.596189756144412
sI1078
F10.596189756144412
sI1079
F10.596189756144412
sI1080
F10.596189756144412
sI1081
F10.596189756144412
sI1082
F10.596189756144412
sI1083
F10.596189756144412
sI1084
F10.596189756144412
sI1085
F10.596189756144412
sI1086
F9.011227255423254
sI1087
F9.011227255423254
sI1088
F10.596189756144412
sI1089
F9.596189756144412
sI1090
F10.596189756144412
sI1091
F10.596189756144412
sI1092
F10.596189756144412
sI1093
F10.596189756144412
sI1094
F10.596189756144412
sI1095
F10.596189756144412
sI1096
F10.596189756144412
sI1097
F10.596189756144412
sI1098
F10.596189756144412
sI1099
F9.596189756144412
sI1100
F10.596189756144412
sI1101
F10.596189756144412
sI1102
F10.596189756144412
sI1103
F9.596189756144412
sI1104
F9.011227255423254
sI1105
F10.596189756144412
sI1106
F6.59618975614441
sI1107
F10.596189756144412
sI1108
F10.596189756144412
sI1109
F10.596189756144412
sI1110
F10.596189756144412
sI1111
F10.596189756144412
sI1112
F10.596189756144412
sI1113
F9.596189756144412
sI1114
F10.596189756144412
sI1115
F10.596189756144412
sI1116
F10.596189756144412
sI1117
F9.596189756144412
sI1118
F10.596189756144412
sI1119
F9.596189756144412
sI1120
F9.011227255423254
sI1121
F9.011227255423254
sI1122
F9.011227255423254
sI1123
F9.011227255423254
sI1124
F9.596189756144412
sI1125
F10.596189756144412
sI1126
F10.596189756144412
sI1127
F9.596189756144412
sI1128
F9.596189756144412
sI1129
F10.596189756144412
sI1130
F10.596189756144412
sI1131
F9.596189756144412
sI1132
F9.596189756144412
sI1133
F8.274261661257048
sI1134
F8.274261661257048
sI1135
F8.59618975614441
sI1136
F10.596189756144412
ssS'num_docs'
p9
I1548
sS'num_nnz'
p10
I7820
sS'dfs'
p11
(dp12
I0
I92
sI1
I2
sI2
I222
sI3
I186
sI4
I202
sI5
I18
sI6
I1
sI7
I6
sI8
I4
sI9
I44
sI10
I7
sI11
I96
sI12
I1
sI13
I289
sI14
I3
sI15
I53
sI16
I10
sI17
I2
sI18
I21
sI19
I90
sI20
I164
sI21
I93
sI22
I2
sI23
I115
sI24
I21
sI25
I20
sI26
I20
sI27
I1
sI28
I13
sI29
I69
sI30
I18
sI31
I11
sI32
I12
sI33
I15
sI34
I32
sI35
I31
sI36
I47
sI37
I9
sI38
I2
sI39
I3
sI40
I7
sI41
I74
sI42
I6
sI43
I30
sI44
I5
sI45
I25
sI46
I2
sI47
I3
sI48
I1
sI49
I3
sI50
I47
sI51
I21
sI52
I1
sI53
I4
sI54
I48
sI55
I59
sI56
I43
sI57
I8
sI58
I31
sI59
I93
sI60
I26
sI61
I45
sI62
I37
sI63
I24
sI64
I26
sI65
I9
sI66
I18
sI67
I60
sI68
I1
sI69
I18
sI70
I10
sI71
I13
sI72
I2
sI73
I17
sI74
I8
sI75
I18
sI76
I2
sI77
I7
sI78
I2
sI79
I2
sI80
I3
sI81
I3
sI82
I10
sI83
I23
sI84
I8
sI85
I18
sI86
I3
sI87
I3
sI88
I8
sI89
I22
sI90
I3
sI91
I2
sI92
I2
sI93
I17
sI94
I1
sI95
I8
sI96
I1
sI97
I8
sI98
I2
sI99
I2
sI100
I6
sI101
I7
sI102
I4
sI103
I3
sI104
I6
sI105
I78
sI106
I1
sI107
I6
sI108
I1
sI109
I1
sI110
I7
sI111
I10
sI112
I2
sI113
I1
sI114
I4
sI115
I6
sI116
I32
sI117
I1
sI118
I5
sI119
I1
sI120
I10
sI121
I9
sI122
I1
sI123
I1
sI124
I3
sI125
I8
sI126
I1
sI127
I5
sI128
I34
sI129
I15
sI130
I1
sI131
I1
sI132
I14
sI133
I8
sI134
I1
sI135
I1
sI136
I7
sI137
I4
sI138
I3
sI139
I5
sI140
I3
sI141
I12
sI142
I2
sI143
I10
sI144
I2
sI145
I32
sI146
I6
sI147
I6
sI148
I13
sI149
I2
sI150
I3
sI151
I1
sI152
I1
sI153
I21
sI154
I2
sI155
I1
sI156
I1
sI157
I23
sI158
I7
sI159
I18
sI160
I1
sI161
I12
sI162
I18
sI163
I13
sI164
I23
sI165
I1
sI166
I1
sI167
I15
sI168
I1
sI169
I1
sI170
I40
sI171
I2
sI172
I12
sI173
I3
sI174
I16
sI175
I1
sI176
I3
sI177
I4
sI178
I14
sI179
I1
sI180
I1
sI181
I2
sI182
I37
sI183
I16
sI184
I20
sI185
I5
sI186
I25
sI187
I11
sI188
I45
sI189
I1
sI190
I6
sI191
I31
sI192
I9
sI193
I50
sI194
I6
sI195
I12
sI196
I1
sI197
I3
sI198
I6
sI199
I5
sI200
I3
sI201
I7
sI202
I3
sI203
I11
sI204
I3
sI205
I3
sI206
I2
sI207
I64
sI208
I6
sI209
I10
sI210
I1
sI211
I6
sI212
I1
sI213
I1
sI214
I8
sI215
I4
sI216
I136
sI217
I19
sI218
I6
sI219
I9
sI220
I1
sI221
I2
sI222
I1
sI223
I47
sI224
I1
sI225
I11
sI226
I4
sI227
I4
sI228
I11
sI229
I1
sI230
I12
sI231
I5
sI232
I2
sI233
I2
sI234
I2
sI235
I3
sI236
I1
sI237
I5
sI238
I5
sI239
I3
sI240
I7
sI241
I1
sI242
I1
sI243
I1
sI244
I14
sI245
I1
sI246
I3
sI247
I1
sI248
I1
sI249
I8
sI250
I4
sI251
I14
sI252
I4
sI253
I1
sI254
I3
sI255
I16
sI256
I1
sI257
I4
sI258
I7
sI259
I12
sI260
I18
sI261
I2
sI262
I1
sI263
I2
sI264
I1
sI265
I2
sI266
I29
sI267
I4
sI268
I2
sI269
I23
sI270
I10
sI271
I2
sI272
I17
sI273
I21
sI274
I17
sI275
I5
sI276
I30
sI277
I4
sI278
I1
sI279
I5
sI280
I3
sI281
I1
sI282
I27
sI283
I1
sI284
I2
sI285
I14
sI286
I5
sI287
I10
sI288
I25
sI289
I18
sI290
I1
sI291
I6
sI292
I24
sI293
I17
sI294
I21
sI295
I4
sI296
I6
sI297
I6
sI298
I18
sI299
I8
sI300
I5
sI301
I3
sI302
I5
sI303
I3
sI304
I1
sI305
I1
sI306
I12
sI307
I17
sI308
I1
sI309
I1
sI310
I1
sI311
I1
sI312
I2
sI313
I6
sI314
I2
sI315
I5
sI316
I10
sI317
I1
sI318
I4
sI319
I1
sI320
I2
sI321
I8
sI322
I7
sI323
I2
sI324
I1
sI325
I1
sI326
I1
sI327
I1
sI328
I1
sI329
I1
sI330
I2
sI331
I2
sI332
I2
sI333
I9
sI334
I3
sI335
I1
sI336
I1
sI337
I1
sI338
I1
sI339
I1
sI340
I59
sI341
I1
sI342
I1
sI343
I1
sI344
I34
sI345
I1
sI346
I1
sI347
I2
sI348
I1
sI349
I1
sI350
I6
sI351
I1
sI352
I1
sI353
I1
sI354
I18
sI355
I1
sI356
I3
sI357
I3
sI358
I2
sI359
I4
sI360
I3
sI361
I1
sI362
I1
sI363
I1
sI364
I8
sI365
I3
sI366
I3
sI367
I12
sI368
I1
sI369
I2
sI370
I2
sI371
I1
sI372
I9
sI373
I2
sI374
I3
sI375
I4
sI376
I1
sI377
I39
sI378
I4
sI379
I7
sI380
I5
sI381
I3
sI382
I2
sI383
I12
sI384
I5
sI385
I1
sI386
I1
sI387
I4
sI388
I3
sI389
I2
sI390
I2
sI391
I3
sI392
I1
sI393
I1
sI394
I2
sI395
I7
sI396
I1
sI397
I1
sI398
I2
sI399
I2
sI400
I3
sI401
I1
sI402
I4
sI403
I4
sI404
I9
sI405
I1
sI406
I1
sI407
I1
sI408
I2
sI409
I1
sI410
I2
sI411
I1
sI412
I1
sI413
I4
sI414
I1
sI415
I1
sI416
I2
sI417
I2
sI418
I1
sI419
I15
sI420
I1
sI421
I1
sI422
I1
sI423
I18
sI424
I1
sI425
I1
sI426
I2
sI427
I1
sI428
I2
sI429
I8
sI430
I4
sI431
I2
sI432
I5
sI433
I1
sI434
I1
sI435
I1
sI436
I1
sI437
I1
sI438
I1
sI439
I1
sI440
I3
sI441
I1
sI442
I1
sI443
I3
sI444
I1
sI445
I1
sI446
I1
sI447
I1
sI448
I2
sI449
I1
sI450
I1
sI451
I2
sI452
I1
sI453
I1
sI454
I1
sI455
I2
sI456
I2
sI457
I1
sI458
I1
sI459
I1
sI460
I2
sI461
I1
sI462
I10
sI463
I16
sI464
I18
sI465
I2
sI466
I1
sI467
I1
sI468
I5
sI469
I14
sI470
I2
sI471
I1
sI472
I3
sI473
I1
sI474
I1
sI475
I1
sI476
I1
sI477
I1
sI478
I1
sI479
I1
sI480
I1
sI481
I1
sI482
I1
sI483
I1
sI484
I7
sI485
I1
sI486
I1
sI487
I7
sI488
I15
sI489
I2
sI490
I1
sI491
I2
sI492
I6
sI493
I2
sI494
I1
sI495
I1
sI496
I2
sI497
I20
sI498
I2
sI499
I2
sI500
I1
sI501
I1
sI502
I1
sI503
I1
sI504
I2
sI505
I8
sI506
I4
sI507
I4
sI508
I4
sI509
I1
sI510
I1
sI511
I3
sI512
I7
sI513
I9
sI514
I10
sI515
I81
sI516
I9
sI517
I1
sI518
I2
sI519
I2
sI520
I1
sI521
I13
sI522
I1
sI523
I1
sI524
I2
sI525
I2
sI526
I24
sI527
I26
sI528
I2
sI529
I2
sI530
I1
sI531
I1
sI532
I3
sI533
I1
sI534
I3
sI535
I3
sI536
I6
sI537
I4
sI538
I9
sI539
I3
sI540
I1
sI541
I4
sI542
I1
sI543
I1
sI544
I11
sI545
I2
sI546
I8
sI547
I1
sI548
I2
sI549
I1
sI550
I9
sI551
I1
sI552
I1
sI553
I1
sI554
I1
sI555
I5
sI556
I1
sI557
I4
sI558
I1
sI559
I1
sI560
I1
sI561
I1
sI562
I1
sI563
I1
sI564
I1
sI565
I4
sI566
I1
sI567
I7
sI568
I1
sI569
I1
sI570
I1
sI571
I1
sI572
I1
sI573
I5
sI574
I1
sI575
I3
sI576
I2
sI577
I3
sI578
I12
sI579
I2
sI580
I2
sI581
I1
sI582
I1
sI583
I1
sI584
I2
sI585
I1
sI586
I1
sI587
I1
sI588
I1
sI589
I1
sI590
I1
sI591
I3
sI592
I4
sI593
I1
sI594
I1
sI595
I1
sI596
I1
sI597
I2
sI598
I1
sI599
I1
sI600
I1
sI601
I2
sI602
I1
sI603
I7
sI604
I1
sI605
I1
sI606
I2
sI607
I1
sI608
I1
sI609
I1
sI610
I1
sI611
I1
sI612
I1
sI613
I2
sI614
I4
sI615
I2
sI616
I8
sI617
I1
sI618
I1
sI619
I1
sI620
I1
sI621
I2
sI622
I1
sI623
I8
sI624
I14
sI625
I9
sI626
I18
sI627
I2
sI628
I1
sI629
I1
sI630
I1
sI631
I1
sI632
I1
sI633
I1
sI634
I1
sI635
I2
sI636
I1
sI637
I2
sI638
I1
sI639
I1
sI640
I1
sI641
I1
sI642
I3
sI643
I2
sI644
I4
sI645
I4
sI646
I1
sI647
I1
sI648
I24
sI649
I1
sI650
I1
sI651
I3
sI652
I7
sI653
I3
sI654
I9
sI655
I10
sI656
I3
sI657
I2
sI658
I10
sI659
I1
sI660
I9
sI661
I3
sI662
I4
sI663
I7
sI664
I7
sI665
I4
sI666
I3
sI667
I4
sI668
I1
sI669
I1
sI670
I1
sI671
I2
sI672
I7
sI673
I1
sI674
I1
sI675
I5
sI676
I1
sI677
I1
sI678
I4
sI679
I5
sI680
I6
sI681
I1
sI682
I1
sI683
I3
sI684
I3
sI685
I1
sI686
I1
sI687
I3
sI688
I2
sI689
I1
sI690
I1
sI691
I1
sI692
I1
sI693
I1
sI694
I1
sI695
I3
sI696
I3
sI697
I2
sI698
I2
sI699
I3
sI700
I10
sI701
I1
sI702
I2
sI703
I2
sI704
I1
sI705
I12
sI706
I2
sI707
I3
sI708
I13
sI709
I8
sI710
I6
sI711
I4
sI712
I1
sI713
I1
sI714
I3
sI715
I8
sI716
I1
sI717
I5
sI718
I2
sI719
I1
sI720
I3
sI721
I1
sI722
I1
sI723
I5
sI724
I1
sI725
I9
sI726
I1
sI727
I1
sI728
I2
sI729
I1
sI730
I2
sI731
I1
sI732
I1
sI733
I1
sI734
I1
sI735
I6
sI736
I1
sI737
I1
sI738
I12
sI739
I5
sI740
I6
sI741
I1
sI742
I2
sI743
I1
sI744
I1
sI745
I1
sI746
I1
sI747
I1
sI748
I4
sI749
I6
sI750
I1
sI751
I1
sI752
I3
sI753
I3
sI754
I2
sI755
I5
sI756
I1
sI757
I1
sI758
I2
sI759
I5
sI760
I8
sI761
I4
sI762
I4
sI763
I4
sI764
I4
sI765
I1
sI766
I1
sI767
I1
sI768
I1
sI769
I1
sI770
I3
sI771
I1
sI772
I3
sI773
I6
sI774
I2
sI775
I1
sI776
I22
sI777
I16
sI778
I4
sI779
I1
sI780
I1
sI781
I1
sI782
I1
sI783
I1
sI784
I2
sI785
I1
sI786
I1
sI787
I1
sI788
I16
sI789
I14
sI790
I3
sI791
I3
sI792
I3
sI793
I1
sI794
I1
sI795
I5
sI796
I1
sI797
I5
sI798
I9
sI799
I1
sI800
I1
sI801
I1
sI802
I1
sI803
I4
sI804
I1
sI805
I1
sI806
I1
sI807
I1
sI808
I16
sI809
I3
sI810
I2
sI811
I2
sI812
I1
sI813
I19
sI814
I3
sI815
I2
sI816
I2
sI817
I4
sI818
I1
sI819
I2
sI820
I9
sI821
I1
sI822
I1
sI823
I1
sI824
I1
sI825
I1
sI826
I2
sI827
I6
sI828
I3
sI829
I3
sI830
I1
sI831
I2
sI832
I2
sI833
I7
sI834
I3
sI835
I1
sI836
I1
sI837
I10
sI838
I1
sI839
I2
sI840
I2
sI841
I1
sI842
I1
sI843
I1
sI844
I3
sI845
I2
sI846
I1
sI847
I1
sI848
I2
sI849
I1
sI850
I1
sI851
I1
sI852
I1
sI853
I2
sI854
I1
sI855
I1
sI856
I1
sI857
I2
sI858
I3
sI859
I1
sI860
I1
sI861
I1
sI862
I2
sI863
I1
sI864
I1
sI865
I1
sI866
I3
sI867
I3
sI868
I1
sI869
I3
sI870
I1
sI871
I1
sI872
I1
sI873
I1
sI874
I1
sI875
I2
sI876
I2
sI877
I4
sI878
I1
sI879
I1
sI880
I1
sI881
I1
sI882
I1
sI883
I1
sI884
I1
sI885
I1
sI886
I1
sI887
I1
sI888
I1
sI889
I3
sI890
I1
sI891
I4
sI892
I6
sI893
I6
sI894
I1
sI895
I3
sI896
I2
sI897
I56
sI898
I1
sI899
I1
sI900
I2
sI901
I3
sI902
I36
sI903
I27
sI904
I27
sI905
I3
sI906
I1
sI907
I2
sI908
I2
sI909
I3
sI910
I1
sI911
I2
sI912
I1
sI913
I1
sI914
I1
sI915
I2
sI916
I1
sI917
I1
sI918
I1
sI919
I1
sI920
I3
sI921
I2
sI922
I1
sI923
I6
sI924
I3
sI925
I1
sI926
I1
sI927
I11
sI928
I4
sI929
I1
sI930
I2
sI931
I6
sI932
I4
sI933
I3
sI934
I2
sI935
I2
sI936
I1
sI937
I1
sI938
I4
sI939
I2
sI940
I3
sI941
I2
sI942
I8
sI943
I1
sI944
I1
sI945
I1
sI946
I4
sI947
I1
sI948
I2
sI949
I4
sI950
I91
sI951
I1
sI952
I1
sI953
I1
sI954
I1
sI955
I6
sI956
I1
sI957
I2
sI958
I1
sI959
I1
sI960
I1
sI961
I1
sI962
I2
sI963
I2
sI964
I1
sI965
I1
sI966
I1
sI967
I1
sI968
I1
sI969
I1
sI970
I1
sI971
I1
sI972
I1
sI973
I1
sI974
I1
sI975
I1
sI976
I23
sI977
I2
sI978
I1
sI979
I1
sI980
I2
sI981
I1
sI982
I2
sI983
I1
sI984
I1
sI985
I23
sI986
I2
sI987
I1
sI988
I1
sI989
I1
sI990
I1
sI991
I1
sI992
I1
sI993
I1
sI994
I1
sI995
I5
sI996
I1
sI997
I1
sI998
I1
sI999
I2
sI1000
I2
sI1001
I1
sI1002
I1
sI1003
I2
sI1004
I1
sI1005
I1
sI1006
I28
sI1007
I7
sI1008
I26
sI1009
I5
sI1010
I1
sI1011
I1
sI1012
I9
sI1013
I5
sI1014
I2
sI1015
I2
sI1016
I1
sI1017
I1
sI1018
I7
sI1019
I3
sI1020
I1
sI1021
I3
sI1022
I1
sI1023
I2
sI1024
I1
sI1025
I1
sI1026
I2
sI1027
I1
sI1028
I32
sI1029
I1
sI1030
I1
sI1031
I9
sI1032
I2
sI1033
I1
sI1034
I1
sI1035
I2
sI1036
I3
sI1037
I1
sI1038
I7
sI1039
I1
sI1040
I2
sI1041
I3
sI1042
I2
sI1043
I6
sI1044
I1
sI1045
I2
sI1046
I1
sI1047
I1
sI1048
I1
sI1049
I1
sI1050
I1
sI1051
I4
sI1052
I1
sI1053
I1
sI1054
I2
sI1055
I1
sI1056
I3
sI1057
I4
sI1058
I1
sI1059
I1
sI1060
I1
sI1061
I3
sI1062
I1
sI1063
I1
sI1064
I4
sI1065
I8
sI1066
I13
sI1067
I14
sI1068
I1
sI1069
I1
sI1070
I1
sI1071
I1
sI1072
I3
sI1073
I1
sI1074
I11
sI1075
I1
sI1076
I1
sI1077
I1
sI1078
I1
sI1079
I1
sI1080
I1
sI1081
I1
sI1082
I1
sI1083
I1
sI1084
I1
sI1085
I1
sI1086
I3
sI1087
I3
sI1088
I1
sI1089
I2
sI1090
I1
sI1091
I1
sI1092
I1
sI1093
I1
sI1094
I1
sI1095
I1
sI1096
I1
sI1097
I1
sI1098
I1
sI1099
I2
sI1100
I1
sI1101
I1
sI1102
I1
sI1103
I2
sI1104
I3
sI1105
I1
sI1106
I16
sI1107
I1
sI1108
I1
sI1109
I1
sI1110
I1
sI1111
I1
sI1112
I1
sI1113
I2
sI1114
I1
sI1115
I1
sI1116
I1
sI1117
I2
sI1118
I1
sI1119
I2
sI1120
I3
sI1121
I3
sI1122
I3
sI1123
I3
sI1124
I2
sI1125
I1
sI1126
I1
sI1127
I2
sI1128
I2
sI1129
I1
sI1130
I1
sI1131
I2
sI1132
I2
sI1133
I5
sI1134
I5
sI1135
I4
sI1136
I1
ssS'id2word'
p13
NsS'wglobal'
p14
cgensim.models.tfidfmodel
df2idf
p15
sS'wlocal'
p16
cgensim.utils
identity
p17
sb.